
asm:     file format elf64-x86-64


Disassembly of section .init:

0000000000000580 <_init>:
 580:	48 83 ec 08          	sub    $0x8,%rsp
 584:	48 8b 05 5d 0a 20 00 	mov    0x200a5d(%rip),%rax        # 200fe8 <__gmon_start__>
 58b:	48 85 c0             	test   %rax,%rax
 58e:	74 02                	je     592 <_init+0x12>
 590:	ff d0                	callq  *%rax
 592:	48 83 c4 08          	add    $0x8,%rsp
 596:	c3                   	retq   

Disassembly of section .plt:

00000000000005a0 <.plt>:
 5a0:	ff 35 0a 0a 20 00    	pushq  0x200a0a(%rip)        # 200fb0 <_GLOBAL_OFFSET_TABLE_+0x8>
 5a6:	ff 25 0c 0a 20 00    	jmpq   *0x200a0c(%rip)        # 200fb8 <_GLOBAL_OFFSET_TABLE_+0x10>
 5ac:	0f 1f 40 00          	nopl   0x0(%rax)

00000000000005b0 <puts@plt>:
 5b0:	ff 25 0a 0a 20 00    	jmpq   *0x200a0a(%rip)        # 200fc0 <puts@GLIBC_2.2.5>
 5b6:	68 00 00 00 00       	pushq  $0x0
 5bb:	e9 e0 ff ff ff       	jmpq   5a0 <.plt>

00000000000005c0 <__stack_chk_fail@plt>:
 5c0:	ff 25 02 0a 20 00    	jmpq   *0x200a02(%rip)        # 200fc8 <__stack_chk_fail@GLIBC_2.4>
 5c6:	68 01 00 00 00       	pushq  $0x1
 5cb:	e9 d0 ff ff ff       	jmpq   5a0 <.plt>

00000000000005d0 <printf@plt>:
 5d0:	ff 25 fa 09 20 00    	jmpq   *0x2009fa(%rip)        # 200fd0 <printf@GLIBC_2.2.5>
 5d6:	68 02 00 00 00       	pushq  $0x2
 5db:	e9 c0 ff ff ff       	jmpq   5a0 <.plt>

Disassembly of section .plt.got:

00000000000005e0 <__cxa_finalize@plt>:
 5e0:	ff 25 12 0a 20 00    	jmpq   *0x200a12(%rip)        # 200ff8 <__cxa_finalize@GLIBC_2.2.5>
 5e6:	66 90                	xchg   %ax,%ax

Disassembly of section .text:

00000000000005f0 <_start>:
 5f0:	31 ed                	xor    %ebp,%ebp
 5f2:	49 89 d1             	mov    %rdx,%r9
 5f5:	5e                   	pop    %rsi
 5f6:	48 89 e2             	mov    %rsp,%rdx
 5f9:	48 83 e4 f0          	and    $0xfffffffffffffff0,%rsp
 5fd:	50                   	push   %rax
 5fe:	54                   	push   %rsp
 5ff:	4c 8d 05 1a 03 00 00 	lea    0x31a(%rip),%r8        # 920 <__libc_csu_fini>
 606:	48 8d 0d a3 02 00 00 	lea    0x2a3(%rip),%rcx        # 8b0 <__libc_csu_init>
 60d:	48 8d 3d 63 02 00 00 	lea    0x263(%rip),%rdi        # 877 <main>
 614:	ff 15 c6 09 20 00    	callq  *0x2009c6(%rip)        # 200fe0 <__libc_start_main@GLIBC_2.2.5>
 61a:	f4                   	hlt    
 61b:	0f 1f 44 00 00       	nopl   0x0(%rax,%rax,1)

0000000000000620 <deregister_tm_clones>:
 620:	48 8d 3d e9 09 20 00 	lea    0x2009e9(%rip),%rdi        # 201010 <__TMC_END__>
 627:	55                   	push   %rbp
 628:	48 8d 05 e1 09 20 00 	lea    0x2009e1(%rip),%rax        # 201010 <__TMC_END__>
 62f:	48 39 f8             	cmp    %rdi,%rax
 632:	48 89 e5             	mov    %rsp,%rbp
 635:	74 19                	je     650 <deregister_tm_clones+0x30>
 637:	48 8b 05 9a 09 20 00 	mov    0x20099a(%rip),%rax        # 200fd8 <_ITM_deregisterTMCloneTable>
 63e:	48 85 c0             	test   %rax,%rax
 641:	74 0d                	je     650 <deregister_tm_clones+0x30>
 643:	5d                   	pop    %rbp
 644:	ff e0                	jmpq   *%rax
 646:	66 2e 0f 1f 84 00 00 	nopw   %cs:0x0(%rax,%rax,1)
 64d:	00 00 00 
 650:	5d                   	pop    %rbp
 651:	c3                   	retq   
 652:	0f 1f 40 00          	nopl   0x0(%rax)
 656:	66 2e 0f 1f 84 00 00 	nopw   %cs:0x0(%rax,%rax,1)
 65d:	00 00 00 

0000000000000660 <register_tm_clones>:
 660:	48 8d 3d a9 09 20 00 	lea    0x2009a9(%rip),%rdi        # 201010 <__TMC_END__>
 667:	48 8d 35 a2 09 20 00 	lea    0x2009a2(%rip),%rsi        # 201010 <__TMC_END__>
 66e:	55                   	push   %rbp
 66f:	48 29 fe             	sub    %rdi,%rsi
 672:	48 89 e5             	mov    %rsp,%rbp
 675:	48 c1 fe 03          	sar    $0x3,%rsi
 679:	48 89 f0             	mov    %rsi,%rax
 67c:	48 c1 e8 3f          	shr    $0x3f,%rax
 680:	48 01 c6             	add    %rax,%rsi
 683:	48 d1 fe             	sar    %rsi
 686:	74 18                	je     6a0 <register_tm_clones+0x40>
 688:	48 8b 05 61 09 20 00 	mov    0x200961(%rip),%rax        # 200ff0 <_ITM_registerTMCloneTable>
 68f:	48 85 c0             	test   %rax,%rax
 692:	74 0c                	je     6a0 <register_tm_clones+0x40>
 694:	5d                   	pop    %rbp
 695:	ff e0                	jmpq   *%rax
 697:	66 0f 1f 84 00 00 00 	nopw   0x0(%rax,%rax,1)
 69e:	00 00 
 6a0:	5d                   	pop    %rbp
 6a1:	c3                   	retq   
 6a2:	0f 1f 40 00          	nopl   0x0(%rax)
 6a6:	66 2e 0f 1f 84 00 00 	nopw   %cs:0x0(%rax,%rax,1)
 6ad:	00 00 00 

00000000000006b0 <__do_global_dtors_aux>:
 6b0:	80 3d 59 09 20 00 00 	cmpb   $0x0,0x200959(%rip)        # 201010 <__TMC_END__>
 6b7:	75 2f                	jne    6e8 <__do_global_dtors_aux+0x38>
 6b9:	48 83 3d 37 09 20 00 	cmpq   $0x0,0x200937(%rip)        # 200ff8 <__cxa_finalize@GLIBC_2.2.5>
 6c0:	00 
 6c1:	55                   	push   %rbp
 6c2:	48 89 e5             	mov    %rsp,%rbp
 6c5:	74 0c                	je     6d3 <__do_global_dtors_aux+0x23>
 6c7:	48 8b 3d 3a 09 20 00 	mov    0x20093a(%rip),%rdi        # 201008 <__dso_handle>
 6ce:	e8 0d ff ff ff       	callq  5e0 <__cxa_finalize@plt>
 6d3:	e8 48 ff ff ff       	callq  620 <deregister_tm_clones>
 6d8:	c6 05 31 09 20 00 01 	movb   $0x1,0x200931(%rip)        # 201010 <__TMC_END__>
 6df:	5d                   	pop    %rbp
 6e0:	c3                   	retq   
 6e1:	0f 1f 80 00 00 00 00 	nopl   0x0(%rax)
 6e8:	f3 c3                	repz retq 
 6ea:	66 0f 1f 44 00 00    	nopw   0x0(%rax,%rax,1)

00000000000006f0 <frame_dummy>:
 6f0:	55                   	push   %rbp
 6f1:	48 89 e5             	mov    %rsp,%rbp
 6f4:	5d                   	pop    %rbp
 6f5:	e9 66 ff ff ff       	jmpq   660 <register_tm_clones>

00000000000006fa <print_empty_lines>:
 6fa:	55                   	push   %rbp
 6fb:	48 89 e5             	mov    %rsp,%rbp
 6fe:	48 8d 3d 33 02 00 00 	lea    0x233(%rip),%rdi        # 938 <_IO_stdin_used+0x8>
 705:	e8 a6 fe ff ff       	callq  5b0 <puts@plt>
 70a:	90                   	nop
 70b:	5d                   	pop    %rbp
 70c:	c3                   	retq   

000000000000070d <asm_test1>:
 70d:	55                   	push   %rbp
 70e:	48 89 e5             	mov    %rsp,%rbp
 711:	48 83 ec 10          	sub    $0x10,%rsp
 715:	48 8d 3d 24 02 00 00 	lea    0x224(%rip),%rdi        # 940 <_IO_stdin_used+0x10>
 71c:	b8 00 00 00 00       	mov    $0x0,%eax
 721:	e8 aa fe ff ff       	callq  5d0 <printf@plt>
 726:	c7 45 f8 19 00 00 00 	movl   $0x19,-0x8(%rbp)
 72d:	c7 45 fc 23 00 00 00 	movl   $0x23,-0x4(%rbp)
 734:	8b 55 fc             	mov    -0x4(%rbp),%edx
 737:	8b 45 f8             	mov    -0x8(%rbp),%eax
 73a:	89 c6                	mov    %eax,%esi
 73c:	48 8d 3d 1d 02 00 00 	lea    0x21d(%rip),%rdi        # 960 <_IO_stdin_used+0x30>
 743:	b8 00 00 00 00       	mov    $0x0,%eax
 748:	e8 83 fe ff ff       	callq  5d0 <printf@plt>
 74d:	8b 45 f8             	mov    -0x8(%rbp),%eax
 750:	89 c0                	mov    %eax,%eax
 752:	89 45 fc             	mov    %eax,-0x4(%rbp)
 755:	8b 55 fc             	mov    -0x4(%rbp),%edx
 758:	8b 45 f8             	mov    -0x8(%rbp),%eax
 75b:	89 c6                	mov    %eax,%esi
 75d:	48 8d 3d 1c 02 00 00 	lea    0x21c(%rip),%rdi        # 980 <_IO_stdin_used+0x50>
 764:	b8 00 00 00 00       	mov    $0x0,%eax
 769:	e8 62 fe ff ff       	callq  5d0 <printf@plt>
 76e:	b8 00 00 00 00       	mov    $0x0,%eax
 773:	e8 82 ff ff ff       	callq  6fa <print_empty_lines>
 778:	90                   	nop
 779:	c9                   	leaveq 
 77a:	c3                   	retq   

000000000000077b <asm_test2>:
 77b:	55                   	push   %rbp
 77c:	48 89 e5             	mov    %rsp,%rbp
 77f:	48 83 ec 20          	sub    $0x20,%rsp
 783:	64 48 8b 04 25 28 00 	mov    %fs:0x28,%rax
 78a:	00 00 
 78c:	48 89 45 f8          	mov    %rax,-0x8(%rbp)
 790:	31 c0                	xor    %eax,%eax
 792:	c7 45 e4 01 00 00 00 	movl   $0x1,-0x1c(%rbp)
 799:	48 8d 45 e4          	lea    -0x1c(%rbp),%rax
 79d:	48 89 45 f0          	mov    %rax,-0x10(%rbp)
 7a1:	48 8d 3d f8 01 00 00 	lea    0x1f8(%rip),%rdi        # 9a0 <_IO_stdin_used+0x70>
 7a8:	b8 00 00 00 00       	mov    $0x0,%eax
 7ad:	e8 1e fe ff ff       	callq  5d0 <printf@plt>
 7b2:	48 8d 3d 2b 02 00 00 	lea    0x22b(%rip),%rdi        # 9e4 <_IO_stdin_used+0xb4>
 7b9:	e8 f2 fd ff ff       	callq  5b0 <puts@plt>
 7be:	48 8b 45 f0          	mov    -0x10(%rbp),%rax
 7c2:	8b 10                	mov    (%rax),%edx
 7c4:	8b 45 e4             	mov    -0x1c(%rbp),%eax
 7c7:	89 c6                	mov    %eax,%esi
 7c9:	48 8d 3d 30 02 00 00 	lea    0x230(%rip),%rdi        # a00 <_IO_stdin_used+0xd0>
 7d0:	b8 00 00 00 00       	mov    $0x0,%eax
 7d5:	e8 f6 fd ff ff       	callq  5d0 <printf@plt>
 7da:	48 8b 45 f0          	mov    -0x10(%rbp),%rax
 7de:	8b 00                	mov    (%rax),%eax
 7e0:	89 c0                	mov    %eax,%eax
 7e2:	89 45 e8             	mov    %eax,-0x18(%rbp)
 7e5:	48 8b 45 f0          	mov    -0x10(%rbp),%rax
 7e9:	8b 10                	mov    (%rax),%edx
 7eb:	8b 45 e4             	mov    -0x1c(%rbp),%eax
 7ee:	8b 4d e8             	mov    -0x18(%rbp),%ecx
 7f1:	89 c6                	mov    %eax,%esi
 7f3:	48 8d 3d 3e 02 00 00 	lea    0x23e(%rip),%rdi        # a38 <_IO_stdin_used+0x108>
 7fa:	b8 00 00 00 00       	mov    $0x0,%eax
 7ff:	e8 cc fd ff ff       	callq  5d0 <printf@plt>
 804:	48 8d 3d 50 02 00 00 	lea    0x250(%rip),%rdi        # a5b <_IO_stdin_used+0x12b>
 80b:	e8 a0 fd ff ff       	callq  5b0 <puts@plt>
 810:	48 8b 45 f0          	mov    -0x10(%rbp),%rax
 814:	8b 10                	mov    (%rax),%edx
 816:	8b 45 e4             	mov    -0x1c(%rbp),%eax
 819:	89 c6                	mov    %eax,%esi
 81b:	48 8d 3d 4e 02 00 00 	lea    0x24e(%rip),%rdi        # a70 <_IO_stdin_used+0x140>
 822:	b8 00 00 00 00       	mov    $0x0,%eax
 827:	e8 a4 fd ff ff       	callq  5d0 <printf@plt>
 82c:	48 8b 45 f0          	mov    -0x10(%rbp),%rax
 830:	8b 00                	mov    (%rax),%eax
 832:	89 c0                	mov    %eax,%eax
 834:	89 45 ec             	mov    %eax,-0x14(%rbp)
 837:	48 8b 45 f0          	mov    -0x10(%rbp),%rax
 83b:	8b 10                	mov    (%rax),%edx
 83d:	8b 45 e4             	mov    -0x1c(%rbp),%eax
 840:	8b 4d ec             	mov    -0x14(%rbp),%ecx
 843:	89 c6                	mov    %eax,%esi
 845:	48 8d 3d 5c 02 00 00 	lea    0x25c(%rip),%rdi        # aa8 <_IO_stdin_used+0x178>
 84c:	b8 00 00 00 00       	mov    $0x0,%eax
 851:	e8 7a fd ff ff       	callq  5d0 <printf@plt>
 856:	b8 00 00 00 00       	mov    $0x0,%eax
 85b:	e8 9a fe ff ff       	callq  6fa <print_empty_lines>
 860:	90                   	nop
 861:	48 8b 45 f8          	mov    -0x8(%rbp),%rax
 865:	64 48 33 04 25 28 00 	xor    %fs:0x28,%rax
 86c:	00 00 
 86e:	74 05                	je     875 <asm_test2+0xfa>
 870:	e8 4b fd ff ff       	callq  5c0 <__stack_chk_fail@plt>
 875:	c9                   	leaveq 
 876:	c3                   	retq   

0000000000000877 <main>:
 877:	55                   	push   %rbp
 878:	48 89 e5             	mov    %rsp,%rbp
 87b:	48 8d 3d 49 02 00 00 	lea    0x249(%rip),%rdi        # acb <_IO_stdin_used+0x19b>
 882:	e8 29 fd ff ff       	callq  5b0 <puts@plt>
 887:	b8 00 00 00 00       	mov    $0x0,%eax
 88c:	e8 7c fe ff ff       	callq  70d <asm_test1>
 891:	b8 00 00 00 00       	mov    $0x0,%eax
 896:	e8 e0 fe ff ff       	callq  77b <asm_test2>
 89b:	b8 00 00 00 00       	mov    $0x0,%eax
 8a0:	5d                   	pop    %rbp
 8a1:	c3                   	retq   
 8a2:	66 2e 0f 1f 84 00 00 	nopw   %cs:0x0(%rax,%rax,1)
 8a9:	00 00 00 
 8ac:	0f 1f 40 00          	nopl   0x0(%rax)

00000000000008b0 <__libc_csu_init>:
 8b0:	41 57                	push   %r15
 8b2:	41 56                	push   %r14
 8b4:	49 89 d7             	mov    %rdx,%r15
 8b7:	41 55                	push   %r13
 8b9:	41 54                	push   %r12
 8bb:	4c 8d 25 e6 04 20 00 	lea    0x2004e6(%rip),%r12        # 200da8 <__frame_dummy_init_array_entry>
 8c2:	55                   	push   %rbp
 8c3:	48 8d 2d e6 04 20 00 	lea    0x2004e6(%rip),%rbp        # 200db0 <__init_array_end>
 8ca:	53                   	push   %rbx
 8cb:	41 89 fd             	mov    %edi,%r13d
 8ce:	49 89 f6             	mov    %rsi,%r14
 8d1:	4c 29 e5             	sub    %r12,%rbp
 8d4:	48 83 ec 08          	sub    $0x8,%rsp
 8d8:	48 c1 fd 03          	sar    $0x3,%rbp
 8dc:	e8 9f fc ff ff       	callq  580 <_init>
 8e1:	48 85 ed             	test   %rbp,%rbp
 8e4:	74 20                	je     906 <__libc_csu_init+0x56>
 8e6:	31 db                	xor    %ebx,%ebx
 8e8:	0f 1f 84 00 00 00 00 	nopl   0x0(%rax,%rax,1)
 8ef:	00 
 8f0:	4c 89 fa             	mov    %r15,%rdx
 8f3:	4c 89 f6             	mov    %r14,%rsi
 8f6:	44 89 ef             	mov    %r13d,%edi
 8f9:	41 ff 14 dc          	callq  *(%r12,%rbx,8)
 8fd:	48 83 c3 01          	add    $0x1,%rbx
 901:	48 39 dd             	cmp    %rbx,%rbp
 904:	75 ea                	jne    8f0 <__libc_csu_init+0x40>
 906:	48 83 c4 08          	add    $0x8,%rsp
 90a:	5b                   	pop    %rbx
 90b:	5d                   	pop    %rbp
 90c:	41 5c                	pop    %r12
 90e:	41 5d                	pop    %r13
 910:	41 5e                	pop    %r14
 912:	41 5f                	pop    %r15
 914:	c3                   	retq   
 915:	90                   	nop
 916:	66 2e 0f 1f 84 00 00 	nopw   %cs:0x0(%rax,%rax,1)
 91d:	00 00 00 

0000000000000920 <__libc_csu_fini>:
 920:	f3 c3                	repz retq 

Disassembly of section .fini:

0000000000000924 <_fini>:
 924:	48 83 ec 08          	sub    $0x8,%rsp
 928:	48 83 c4 08          	add    $0x8,%rsp
 92c:	c3                   	retq   
