
spectre:     file format elf64-x86-64


Disassembly of section .init:

0000000000000560 <_init>:
 560:	48 83 ec 08          	sub    $0x8,%rsp
 564:	48 8b 05 7d 0a 20 00 	mov    0x200a7d(%rip),%rax        # 200fe8 <__gmon_start__>
 56b:	48 85 c0             	test   %rax,%rax
 56e:	74 02                	je     572 <_init+0x12>
 570:	ff d0                	callq  *%rax
 572:	48 83 c4 08          	add    $0x8,%rsp
 576:	c3                   	retq   

Disassembly of section .plt:

0000000000000580 <.plt>:
 580:	ff 35 2a 0a 20 00    	pushq  0x200a2a(%rip)        # 200fb0 <_GLOBAL_OFFSET_TABLE_+0x8>
 586:	ff 25 2c 0a 20 00    	jmpq   *0x200a2c(%rip)        # 200fb8 <_GLOBAL_OFFSET_TABLE_+0x10>
 58c:	0f 1f 40 00          	nopl   0x0(%rax)

0000000000000590 <puts@plt>:
 590:	ff 25 2a 0a 20 00    	jmpq   *0x200a2a(%rip)        # 200fc0 <puts@GLIBC_2.2.5>
 596:	68 00 00 00 00       	pushq  $0x0
 59b:	e9 e0 ff ff ff       	jmpq   580 <.plt>

00000000000005a0 <printf@plt>:
 5a0:	ff 25 22 0a 20 00    	jmpq   *0x200a22(%rip)        # 200fc8 <printf@GLIBC_2.2.5>
 5a6:	68 01 00 00 00       	pushq  $0x1
 5ab:	e9 d0 ff ff ff       	jmpq   580 <.plt>

00000000000005b0 <memalign@plt>:
 5b0:	ff 25 1a 0a 20 00    	jmpq   *0x200a1a(%rip)        # 200fd0 <memalign@GLIBC_2.2.5>
 5b6:	68 02 00 00 00       	pushq  $0x2
 5bb:	e9 c0 ff ff ff       	jmpq   580 <.plt>

Disassembly of section .plt.got:

00000000000005c0 <__cxa_finalize@plt>:
 5c0:	ff 25 32 0a 20 00    	jmpq   *0x200a32(%rip)        # 200ff8 <__cxa_finalize@GLIBC_2.2.5>
 5c6:	66 90                	xchg   %ax,%ax

Disassembly of section .text:

00000000000005d0 <_start>:
 5d0:	31 ed                	xor    %ebp,%ebp
 5d2:	49 89 d1             	mov    %rdx,%r9
 5d5:	5e                   	pop    %rsi
 5d6:	48 89 e2             	mov    %rsp,%rdx
 5d9:	48 83 e4 f0          	and    $0xfffffffffffffff0,%rsp
 5dd:	50                   	push   %rax
 5de:	54                   	push   %rsp
 5df:	4c 8d 05 6a 02 00 00 	lea    0x26a(%rip),%r8        # 850 <__libc_csu_fini>
 5e6:	48 8d 0d f3 01 00 00 	lea    0x1f3(%rip),%rcx        # 7e0 <__libc_csu_init>
 5ed:	48 8d 3d 62 01 00 00 	lea    0x162(%rip),%rdi        # 756 <main>
 5f4:	ff 15 e6 09 20 00    	callq  *0x2009e6(%rip)        # 200fe0 <__libc_start_main@GLIBC_2.2.5>
 5fa:	f4                   	hlt    
 5fb:	0f 1f 44 00 00       	nopl   0x0(%rax,%rax,1)

0000000000000600 <deregister_tm_clones>:
 600:	48 8d 3d 09 0a 20 00 	lea    0x200a09(%rip),%rdi        # 201010 <__TMC_END__>
 607:	55                   	push   %rbp
 608:	48 8d 05 01 0a 20 00 	lea    0x200a01(%rip),%rax        # 201010 <__TMC_END__>
 60f:	48 39 f8             	cmp    %rdi,%rax
 612:	48 89 e5             	mov    %rsp,%rbp
 615:	74 19                	je     630 <deregister_tm_clones+0x30>
 617:	48 8b 05 ba 09 20 00 	mov    0x2009ba(%rip),%rax        # 200fd8 <_ITM_deregisterTMCloneTable>
 61e:	48 85 c0             	test   %rax,%rax
 621:	74 0d                	je     630 <deregister_tm_clones+0x30>
 623:	5d                   	pop    %rbp
 624:	ff e0                	jmpq   *%rax
 626:	66 2e 0f 1f 84 00 00 	nopw   %cs:0x0(%rax,%rax,1)
 62d:	00 00 00 
 630:	5d                   	pop    %rbp
 631:	c3                   	retq   
 632:	0f 1f 40 00          	nopl   0x0(%rax)
 636:	66 2e 0f 1f 84 00 00 	nopw   %cs:0x0(%rax,%rax,1)
 63d:	00 00 00 

0000000000000640 <register_tm_clones>:
 640:	48 8d 3d c9 09 20 00 	lea    0x2009c9(%rip),%rdi        # 201010 <__TMC_END__>
 647:	48 8d 35 c2 09 20 00 	lea    0x2009c2(%rip),%rsi        # 201010 <__TMC_END__>
 64e:	55                   	push   %rbp
 64f:	48 29 fe             	sub    %rdi,%rsi
 652:	48 89 e5             	mov    %rsp,%rbp
 655:	48 c1 fe 03          	sar    $0x3,%rsi
 659:	48 89 f0             	mov    %rsi,%rax
 65c:	48 c1 e8 3f          	shr    $0x3f,%rax
 660:	48 01 c6             	add    %rax,%rsi
 663:	48 d1 fe             	sar    %rsi
 666:	74 18                	je     680 <register_tm_clones+0x40>
 668:	48 8b 05 81 09 20 00 	mov    0x200981(%rip),%rax        # 200ff0 <_ITM_registerTMCloneTable>
 66f:	48 85 c0             	test   %rax,%rax
 672:	74 0c                	je     680 <register_tm_clones+0x40>
 674:	5d                   	pop    %rbp
 675:	ff e0                	jmpq   *%rax
 677:	66 0f 1f 84 00 00 00 	nopw   0x0(%rax,%rax,1)
 67e:	00 00 
 680:	5d                   	pop    %rbp
 681:	c3                   	retq   
 682:	0f 1f 40 00          	nopl   0x0(%rax)
 686:	66 2e 0f 1f 84 00 00 	nopw   %cs:0x0(%rax,%rax,1)
 68d:	00 00 00 

0000000000000690 <__do_global_dtors_aux>:
 690:	80 3d 79 09 20 00 00 	cmpb   $0x0,0x200979(%rip)        # 201010 <__TMC_END__>
 697:	75 2f                	jne    6c8 <__do_global_dtors_aux+0x38>
 699:	48 83 3d 57 09 20 00 	cmpq   $0x0,0x200957(%rip)        # 200ff8 <__cxa_finalize@GLIBC_2.2.5>
 6a0:	00 
 6a1:	55                   	push   %rbp
 6a2:	48 89 e5             	mov    %rsp,%rbp
 6a5:	74 0c                	je     6b3 <__do_global_dtors_aux+0x23>
 6a7:	48 8b 3d 5a 09 20 00 	mov    0x20095a(%rip),%rdi        # 201008 <__dso_handle>
 6ae:	e8 0d ff ff ff       	callq  5c0 <__cxa_finalize@plt>
 6b3:	e8 48 ff ff ff       	callq  600 <deregister_tm_clones>
 6b8:	c6 05 51 09 20 00 01 	movb   $0x1,0x200951(%rip)        # 201010 <__TMC_END__>
 6bf:	5d                   	pop    %rbp
 6c0:	c3                   	retq   
 6c1:	0f 1f 80 00 00 00 00 	nopl   0x0(%rax)
 6c8:	f3 c3                	repz retq 
 6ca:	66 0f 1f 44 00 00    	nopw   0x0(%rax,%rax,1)

00000000000006d0 <frame_dummy>:
 6d0:	55                   	push   %rbp
 6d1:	48 89 e5             	mov    %rsp,%rbp
 6d4:	5d                   	pop    %rbp
 6d5:	e9 66 ff ff ff       	jmpq   640 <register_tm_clones>

00000000000006da <clflush_element>:
 6da:	55                   	push   %rbp
 6db:	48 89 e5             	mov    %rsp,%rbp
 6de:	48 83 ec 10          	sub    $0x10,%rsp
 6e2:	48 89 7d f8          	mov    %rdi,-0x8(%rbp)
 6e6:	48 8b 45 f8          	mov    -0x8(%rbp),%rax
 6ea:	48 8b 10             	mov    (%rax),%rdx
 6ed:	48 8b 45 f8          	mov    -0x8(%rbp),%rax
 6f1:	48 8d 4d f8          	lea    -0x8(%rbp),%rcx
 6f5:	48 89 c6             	mov    %rax,%rsi
 6f8:	48 8d 3d 69 01 00 00 	lea    0x169(%rip),%rdi        # 868 <_IO_stdin_used+0x8>
 6ff:	b8 00 00 00 00       	mov    $0x0,%eax
 704:	e8 97 fe ff ff       	callq  5a0 <printf@plt>
 709:	48 8b 45 f8          	mov    -0x8(%rbp),%rax
 70d:	0f ae 38             	clflush (%rax)
 710:	90                   	nop
 711:	c9                   	leaveq 
 712:	c3                   	retq   

0000000000000713 <clflush_array>:
 713:	55                   	push   %rbp
 714:	48 89 e5             	mov    %rsp,%rbp
 717:	48 83 ec 20          	sub    $0x20,%rsp
 71b:	48 89 7d e8          	mov    %rdi,-0x18(%rbp)
 71f:	89 75 e4             	mov    %esi,-0x1c(%rbp)
 722:	c7 45 fc 00 00 00 00 	movl   $0x0,-0x4(%rbp)
 729:	eb 20                	jmp    74b <clflush_array+0x38>
 72b:	8b 45 fc             	mov    -0x4(%rbp),%eax
 72e:	48 98                	cltq   
 730:	48 8d 14 c5 00 00 00 	lea    0x0(,%rax,8),%rdx
 737:	00 
 738:	48 8b 45 e8          	mov    -0x18(%rbp),%rax
 73c:	48 01 d0             	add    %rdx,%rax
 73f:	48 89 c7             	mov    %rax,%rdi
 742:	e8 93 ff ff ff       	callq  6da <clflush_element>
 747:	83 45 fc 01          	addl   $0x1,-0x4(%rbp)
 74b:	8b 45 fc             	mov    -0x4(%rbp),%eax
 74e:	3b 45 e4             	cmp    -0x1c(%rbp),%eax
 751:	7c d8                	jl     72b <clflush_array+0x18>
 753:	90                   	nop
 754:	c9                   	leaveq 
 755:	c3                   	retq   

0000000000000756 <main>:
 756:	55                   	push   %rbp
 757:	48 89 e5             	mov    %rsp,%rbp
 75a:	48 83 ec 10          	sub    $0x10,%rsp
 75e:	48 8d 3d 22 01 00 00 	lea    0x122(%rip),%rdi        # 887 <_IO_stdin_used+0x27>
 765:	e8 26 fe ff ff       	callq  590 <puts@plt>
 76a:	be 00 00 10 00       	mov    $0x100000,%esi
 76f:	bf 00 10 00 00       	mov    $0x1000,%edi
 774:	e8 37 fe ff ff       	callq  5b0 <memalign@plt>
 779:	48 89 45 f8          	mov    %rax,-0x8(%rbp)
 77d:	c7 45 f4 00 00 00 00 	movl   $0x0,-0xc(%rbp)
 784:	eb 20                	jmp    7a6 <main+0x50>
 786:	8b 45 f4             	mov    -0xc(%rbp),%eax
 789:	48 98                	cltq   
 78b:	48 8d 14 c5 00 00 00 	lea    0x0(,%rax,8),%rdx
 792:	00 
 793:	48 8b 45 f8          	mov    -0x8(%rbp),%rax
 797:	48 01 c2             	add    %rax,%rdx
 79a:	8b 45 f4             	mov    -0xc(%rbp),%eax
 79d:	48 98                	cltq   
 79f:	48 89 02             	mov    %rax,(%rdx)
 7a2:	83 45 f4 01          	addl   $0x1,-0xc(%rbp)
 7a6:	81 7d f4 ff ff 01 00 	cmpl   $0x1ffff,-0xc(%rbp)
 7ad:	7e d7                	jle    786 <main+0x30>
 7af:	48 8b 45 f8          	mov    -0x8(%rbp),%rax
 7b3:	48 89 c7             	mov    %rax,%rdi
 7b6:	e8 1f ff ff ff       	callq  6da <clflush_element>
 7bb:	48 8b 45 f8          	mov    -0x8(%rbp),%rax
 7bf:	be 00 00 02 00       	mov    $0x20000,%esi
 7c4:	48 89 c7             	mov    %rax,%rdi
 7c7:	e8 47 ff ff ff       	callq  713 <clflush_array>
 7cc:	b8 00 00 00 00       	mov    $0x0,%eax
 7d1:	c9                   	leaveq 
 7d2:	c3                   	retq   
 7d3:	66 2e 0f 1f 84 00 00 	nopw   %cs:0x0(%rax,%rax,1)
 7da:	00 00 00 
 7dd:	0f 1f 00             	nopl   (%rax)

00000000000007e0 <__libc_csu_init>:
 7e0:	41 57                	push   %r15
 7e2:	41 56                	push   %r14
 7e4:	49 89 d7             	mov    %rdx,%r15
 7e7:	41 55                	push   %r13
 7e9:	41 54                	push   %r12
 7eb:	4c 8d 25 b6 05 20 00 	lea    0x2005b6(%rip),%r12        # 200da8 <__frame_dummy_init_array_entry>
 7f2:	55                   	push   %rbp
 7f3:	48 8d 2d b6 05 20 00 	lea    0x2005b6(%rip),%rbp        # 200db0 <__init_array_end>
 7fa:	53                   	push   %rbx
 7fb:	41 89 fd             	mov    %edi,%r13d
 7fe:	49 89 f6             	mov    %rsi,%r14
 801:	4c 29 e5             	sub    %r12,%rbp
 804:	48 83 ec 08          	sub    $0x8,%rsp
 808:	48 c1 fd 03          	sar    $0x3,%rbp
 80c:	e8 4f fd ff ff       	callq  560 <_init>
 811:	48 85 ed             	test   %rbp,%rbp
 814:	74 20                	je     836 <__libc_csu_init+0x56>
 816:	31 db                	xor    %ebx,%ebx
 818:	0f 1f 84 00 00 00 00 	nopl   0x0(%rax,%rax,1)
 81f:	00 
 820:	4c 89 fa             	mov    %r15,%rdx
 823:	4c 89 f6             	mov    %r14,%rsi
 826:	44 89 ef             	mov    %r13d,%edi
 829:	41 ff 14 dc          	callq  *(%r12,%rbx,8)
 82d:	48 83 c3 01          	add    $0x1,%rbx
 831:	48 39 dd             	cmp    %rbx,%rbp
 834:	75 ea                	jne    820 <__libc_csu_init+0x40>
 836:	48 83 c4 08          	add    $0x8,%rsp
 83a:	5b                   	pop    %rbx
 83b:	5d                   	pop    %rbp
 83c:	41 5c                	pop    %r12
 83e:	41 5d                	pop    %r13
 840:	41 5e                	pop    %r14
 842:	41 5f                	pop    %r15
 844:	c3                   	retq   
 845:	90                   	nop
 846:	66 2e 0f 1f 84 00 00 	nopw   %cs:0x0(%rax,%rax,1)
 84d:	00 00 00 

0000000000000850 <__libc_csu_fini>:
 850:	f3 c3                	repz retq 

Disassembly of section .fini:

0000000000000854 <_fini>:
 854:	48 83 ec 08          	sub    $0x8,%rsp
 858:	48 83 c4 08          	add    $0x8,%rsp
 85c:	c3                   	retq   
