
asm:     file format elf64-x86-64


Disassembly of section .init:

0000000000000580 <_init>:
 580:	48 83 ec 08          	sub    $0x8,%rsp
 584:	48 8b 05 5d 1a 20 00 	mov    0x201a5d(%rip),%rax        # 201fe8 <__gmon_start__>
 58b:	48 85 c0             	test   %rax,%rax
 58e:	74 02                	je     592 <_init+0x12>
 590:	ff d0                	callq  *%rax
 592:	48 83 c4 08          	add    $0x8,%rsp
 596:	c3                   	retq   

Disassembly of section .plt:

00000000000005a0 <.plt>:
 5a0:	ff 35 0a 1a 20 00    	pushq  0x201a0a(%rip)        # 201fb0 <_GLOBAL_OFFSET_TABLE_+0x8>
 5a6:	ff 25 0c 1a 20 00    	jmpq   *0x201a0c(%rip)        # 201fb8 <_GLOBAL_OFFSET_TABLE_+0x10>
 5ac:	0f 1f 40 00          	nopl   0x0(%rax)

00000000000005b0 <puts@plt>:
 5b0:	ff 25 0a 1a 20 00    	jmpq   *0x201a0a(%rip)        # 201fc0 <puts@GLIBC_2.2.5>
 5b6:	68 00 00 00 00       	pushq  $0x0
 5bb:	e9 e0 ff ff ff       	jmpq   5a0 <.plt>

00000000000005c0 <__stack_chk_fail@plt>:
 5c0:	ff 25 02 1a 20 00    	jmpq   *0x201a02(%rip)        # 201fc8 <__stack_chk_fail@GLIBC_2.4>
 5c6:	68 01 00 00 00       	pushq  $0x1
 5cb:	e9 d0 ff ff ff       	jmpq   5a0 <.plt>

00000000000005d0 <printf@plt>:
 5d0:	ff 25 fa 19 20 00    	jmpq   *0x2019fa(%rip)        # 201fd0 <printf@GLIBC_2.2.5>
 5d6:	68 02 00 00 00       	pushq  $0x2
 5db:	e9 c0 ff ff ff       	jmpq   5a0 <.plt>

Disassembly of section .plt.got:

00000000000005e0 <__cxa_finalize@plt>:
 5e0:	ff 25 12 1a 20 00    	jmpq   *0x201a12(%rip)        # 201ff8 <__cxa_finalize@GLIBC_2.2.5>
 5e6:	66 90                	xchg   %ax,%ax

Disassembly of section .text:

00000000000005f0 <_start>:
 5f0:	31 ed                	xor    %ebp,%ebp
 5f2:	49 89 d1             	mov    %rdx,%r9
 5f5:	5e                   	pop    %rsi
 5f6:	48 89 e2             	mov    %rsp,%rdx
 5f9:	48 83 e4 f0          	and    $0xfffffffffffffff0,%rsp
 5fd:	50                   	push   %rax
 5fe:	54                   	push   %rsp
 5ff:	4c 8d 05 9a 05 00 00 	lea    0x59a(%rip),%r8        # ba0 <__libc_csu_fini>
 606:	48 8d 0d 23 05 00 00 	lea    0x523(%rip),%rcx        # b30 <__libc_csu_init>
 60d:	48 8d 3d d3 04 00 00 	lea    0x4d3(%rip),%rdi        # ae7 <main>
 614:	ff 15 c6 19 20 00    	callq  *0x2019c6(%rip)        # 201fe0 <__libc_start_main@GLIBC_2.2.5>
 61a:	f4                   	hlt    
 61b:	0f 1f 44 00 00       	nopl   0x0(%rax,%rax,1)

0000000000000620 <deregister_tm_clones>:
 620:	48 8d 3d e9 19 20 00 	lea    0x2019e9(%rip),%rdi        # 202010 <__TMC_END__>
 627:	55                   	push   %rbp
 628:	48 8d 05 e1 19 20 00 	lea    0x2019e1(%rip),%rax        # 202010 <__TMC_END__>
 62f:	48 39 f8             	cmp    %rdi,%rax
 632:	48 89 e5             	mov    %rsp,%rbp
 635:	74 19                	je     650 <deregister_tm_clones+0x30>
 637:	48 8b 05 9a 19 20 00 	mov    0x20199a(%rip),%rax        # 201fd8 <_ITM_deregisterTMCloneTable>
 63e:	48 85 c0             	test   %rax,%rax
 641:	74 0d                	je     650 <deregister_tm_clones+0x30>
 643:	5d                   	pop    %rbp
 644:	ff e0                	jmpq   *%rax
 646:	66 2e 0f 1f 84 00 00 	nopw   %cs:0x0(%rax,%rax,1)
 64d:	00 00 00 
 650:	5d                   	pop    %rbp
 651:	c3                   	retq   
 652:	0f 1f 40 00          	nopl   0x0(%rax)
 656:	66 2e 0f 1f 84 00 00 	nopw   %cs:0x0(%rax,%rax,1)
 65d:	00 00 00 

0000000000000660 <register_tm_clones>:
 660:	48 8d 3d a9 19 20 00 	lea    0x2019a9(%rip),%rdi        # 202010 <__TMC_END__>
 667:	48 8d 35 a2 19 20 00 	lea    0x2019a2(%rip),%rsi        # 202010 <__TMC_END__>
 66e:	55                   	push   %rbp
 66f:	48 29 fe             	sub    %rdi,%rsi
 672:	48 89 e5             	mov    %rsp,%rbp
 675:	48 c1 fe 03          	sar    $0x3,%rsi
 679:	48 89 f0             	mov    %rsi,%rax
 67c:	48 c1 e8 3f          	shr    $0x3f,%rax
 680:	48 01 c6             	add    %rax,%rsi
 683:	48 d1 fe             	sar    %rsi
 686:	74 18                	je     6a0 <register_tm_clones+0x40>
 688:	48 8b 05 61 19 20 00 	mov    0x201961(%rip),%rax        # 201ff0 <_ITM_registerTMCloneTable>
 68f:	48 85 c0             	test   %rax,%rax
 692:	74 0c                	je     6a0 <register_tm_clones+0x40>
 694:	5d                   	pop    %rbp
 695:	ff e0                	jmpq   *%rax
 697:	66 0f 1f 84 00 00 00 	nopw   0x0(%rax,%rax,1)
 69e:	00 00 
 6a0:	5d                   	pop    %rbp
 6a1:	c3                   	retq   
 6a2:	0f 1f 40 00          	nopl   0x0(%rax)
 6a6:	66 2e 0f 1f 84 00 00 	nopw   %cs:0x0(%rax,%rax,1)
 6ad:	00 00 00 

00000000000006b0 <__do_global_dtors_aux>:
 6b0:	80 3d 59 19 20 00 00 	cmpb   $0x0,0x201959(%rip)        # 202010 <__TMC_END__>
 6b7:	75 2f                	jne    6e8 <__do_global_dtors_aux+0x38>
 6b9:	48 83 3d 37 19 20 00 	cmpq   $0x0,0x201937(%rip)        # 201ff8 <__cxa_finalize@GLIBC_2.2.5>
 6c0:	00 
 6c1:	55                   	push   %rbp
 6c2:	48 89 e5             	mov    %rsp,%rbp
 6c5:	74 0c                	je     6d3 <__do_global_dtors_aux+0x23>
 6c7:	48 8b 3d 3a 19 20 00 	mov    0x20193a(%rip),%rdi        # 202008 <__dso_handle>
 6ce:	e8 0d ff ff ff       	callq  5e0 <__cxa_finalize@plt>
 6d3:	e8 48 ff ff ff       	callq  620 <deregister_tm_clones>
 6d8:	c6 05 31 19 20 00 01 	movb   $0x1,0x201931(%rip)        # 202010 <__TMC_END__>
 6df:	5d                   	pop    %rbp
 6e0:	c3                   	retq   
 6e1:	0f 1f 80 00 00 00 00 	nopl   0x0(%rax)
 6e8:	f3 c3                	repz retq 
 6ea:	66 0f 1f 44 00 00    	nopw   0x0(%rax,%rax,1)

00000000000006f0 <frame_dummy>:
 6f0:	55                   	push   %rbp
 6f1:	48 89 e5             	mov    %rsp,%rbp
 6f4:	5d                   	pop    %rbp
 6f5:	e9 66 ff ff ff       	jmpq   660 <register_tm_clones>

00000000000006fa <print_empty_lines>:
 6fa:	55                   	push   %rbp
 6fb:	48 89 e5             	mov    %rsp,%rbp
 6fe:	48 8d 3d b3 04 00 00 	lea    0x4b3(%rip),%rdi        # bb8 <_IO_stdin_used+0x8>
 705:	e8 a6 fe ff ff       	callq  5b0 <puts@plt>
 70a:	90                   	nop
 70b:	5d                   	pop    %rbp
 70c:	c3                   	retq   

000000000000070d <asm_test1>:
 70d:	55                   	push   %rbp
 70e:	48 89 e5             	mov    %rsp,%rbp
 711:	48 83 ec 10          	sub    $0x10,%rsp
 715:	48 8d 3d a4 04 00 00 	lea    0x4a4(%rip),%rdi        # bc0 <_IO_stdin_used+0x10>
 71c:	b8 00 00 00 00       	mov    $0x0,%eax
 721:	e8 aa fe ff ff       	callq  5d0 <printf@plt>
 726:	c7 45 f8 19 00 00 00 	movl   $0x19,-0x8(%rbp)
 72d:	c7 45 fc 23 00 00 00 	movl   $0x23,-0x4(%rbp)
 734:	8b 55 fc             	mov    -0x4(%rbp),%edx
 737:	8b 45 f8             	mov    -0x8(%rbp),%eax
 73a:	89 c6                	mov    %eax,%esi
 73c:	48 8d 3d 9d 04 00 00 	lea    0x49d(%rip),%rdi        # be0 <_IO_stdin_used+0x30>
 743:	b8 00 00 00 00       	mov    $0x0,%eax
 748:	e8 83 fe ff ff       	callq  5d0 <printf@plt>
 74d:	8b 45 f8             	mov    -0x8(%rbp),%eax
 750:	89 c0                	mov    %eax,%eax
 752:	89 45 fc             	mov    %eax,-0x4(%rbp)
 755:	8b 55 fc             	mov    -0x4(%rbp),%edx
 758:	8b 45 f8             	mov    -0x8(%rbp),%eax
 75b:	89 c6                	mov    %eax,%esi
 75d:	48 8d 3d 9c 04 00 00 	lea    0x49c(%rip),%rdi        # c00 <_IO_stdin_used+0x50>
 764:	b8 00 00 00 00       	mov    $0x0,%eax
 769:	e8 62 fe ff ff       	callq  5d0 <printf@plt>
 76e:	b8 00 00 00 00       	mov    $0x0,%eax
 773:	e8 82 ff ff ff       	callq  6fa <print_empty_lines>
 778:	90                   	nop
 779:	c9                   	leaveq 
 77a:	c3                   	retq   

000000000000077b <asm_test2>:
 77b:	55                   	push   %rbp
 77c:	48 89 e5             	mov    %rsp,%rbp
 77f:	48 83 ec 20          	sub    $0x20,%rsp
 783:	64 48 8b 04 25 28 00 	mov    %fs:0x28,%rax
 78a:	00 00 
 78c:	48 89 45 f8          	mov    %rax,-0x8(%rbp)
 790:	31 c0                	xor    %eax,%eax
 792:	c7 45 e4 01 00 00 00 	movl   $0x1,-0x1c(%rbp)
 799:	48 8d 45 e4          	lea    -0x1c(%rbp),%rax
 79d:	48 89 45 f0          	mov    %rax,-0x10(%rbp)
 7a1:	48 8d 3d 78 04 00 00 	lea    0x478(%rip),%rdi        # c20 <_IO_stdin_used+0x70>
 7a8:	b8 00 00 00 00       	mov    $0x0,%eax
 7ad:	e8 1e fe ff ff       	callq  5d0 <printf@plt>
 7b2:	48 8d 3d ab 04 00 00 	lea    0x4ab(%rip),%rdi        # c64 <_IO_stdin_used+0xb4>
 7b9:	e8 f2 fd ff ff       	callq  5b0 <puts@plt>
 7be:	48 8b 45 f0          	mov    -0x10(%rbp),%rax
 7c2:	8b 10                	mov    (%rax),%edx
 7c4:	8b 45 e4             	mov    -0x1c(%rbp),%eax
 7c7:	89 c6                	mov    %eax,%esi
 7c9:	48 8d 3d b0 04 00 00 	lea    0x4b0(%rip),%rdi        # c80 <_IO_stdin_used+0xd0>
 7d0:	b8 00 00 00 00       	mov    $0x0,%eax
 7d5:	e8 f6 fd ff ff       	callq  5d0 <printf@plt>
 7da:	48 8b 45 f0          	mov    -0x10(%rbp),%rax
 7de:	8b 00                	mov    (%rax),%eax
 7e0:	89 c0                	mov    %eax,%eax
 7e2:	89 45 e8             	mov    %eax,-0x18(%rbp)
 7e5:	48 8b 45 f0          	mov    -0x10(%rbp),%rax
 7e9:	8b 10                	mov    (%rax),%edx
 7eb:	8b 45 e4             	mov    -0x1c(%rbp),%eax
 7ee:	8b 4d e8             	mov    -0x18(%rbp),%ecx
 7f1:	89 c6                	mov    %eax,%esi
 7f3:	48 8d 3d be 04 00 00 	lea    0x4be(%rip),%rdi        # cb8 <_IO_stdin_used+0x108>
 7fa:	b8 00 00 00 00       	mov    $0x0,%eax
 7ff:	e8 cc fd ff ff       	callq  5d0 <printf@plt>
 804:	48 8d 3d d0 04 00 00 	lea    0x4d0(%rip),%rdi        # cdb <_IO_stdin_used+0x12b>
 80b:	e8 a0 fd ff ff       	callq  5b0 <puts@plt>
 810:	48 8b 45 f0          	mov    -0x10(%rbp),%rax
 814:	8b 10                	mov    (%rax),%edx
 816:	8b 45 e4             	mov    -0x1c(%rbp),%eax
 819:	89 c6                	mov    %eax,%esi
 81b:	48 8d 3d ce 04 00 00 	lea    0x4ce(%rip),%rdi        # cf0 <_IO_stdin_used+0x140>
 822:	b8 00 00 00 00       	mov    $0x0,%eax
 827:	e8 a4 fd ff ff       	callq  5d0 <printf@plt>
 82c:	48 8b 45 f0          	mov    -0x10(%rbp),%rax
 830:	8b 00                	mov    (%rax),%eax
 832:	89 c0                	mov    %eax,%eax
 834:	89 45 ec             	mov    %eax,-0x14(%rbp)
 837:	48 8b 45 f0          	mov    -0x10(%rbp),%rax
 83b:	8b 10                	mov    (%rax),%edx
 83d:	8b 45 e4             	mov    -0x1c(%rbp),%eax
 840:	8b 4d ec             	mov    -0x14(%rbp),%ecx
 843:	89 c6                	mov    %eax,%esi
 845:	48 8d 3d dc 04 00 00 	lea    0x4dc(%rip),%rdi        # d28 <_IO_stdin_used+0x178>
 84c:	b8 00 00 00 00       	mov    $0x0,%eax
 851:	e8 7a fd ff ff       	callq  5d0 <printf@plt>
 856:	b8 00 00 00 00       	mov    $0x0,%eax
 85b:	e8 9a fe ff ff       	callq  6fa <print_empty_lines>
 860:	90                   	nop
 861:	48 8b 45 f8          	mov    -0x8(%rbp),%rax
 865:	64 48 33 04 25 28 00 	xor    %fs:0x28,%rax
 86c:	00 00 
 86e:	74 05                	je     875 <asm_test2+0xfa>
 870:	e8 4b fd ff ff       	callq  5c0 <__stack_chk_fail@plt>
 875:	c9                   	leaveq 
 876:	c3                   	retq   

0000000000000877 <asm_test3>:
 877:	55                   	push   %rbp
 878:	48 89 e5             	mov    %rsp,%rbp
 87b:	48 83 ec 10          	sub    $0x10,%rsp
 87f:	c7 45 f4 18 00 00 00 	movl   $0x18,-0xc(%rbp)
 886:	c7 45 f8 0a 00 00 00 	movl   $0xa,-0x8(%rbp)
 88d:	c7 45 fc 00 00 00 00 	movl   $0x0,-0x4(%rbp)
 894:	48 8d 3d b5 04 00 00 	lea    0x4b5(%rip),%rdi        # d50 <_IO_stdin_used+0x1a0>
 89b:	e8 10 fd ff ff       	callq  5b0 <puts@plt>
 8a0:	8b 4d fc             	mov    -0x4(%rbp),%ecx
 8a3:	8b 55 f8             	mov    -0x8(%rbp),%edx
 8a6:	8b 45 f4             	mov    -0xc(%rbp),%eax
 8a9:	89 c6                	mov    %eax,%esi
 8ab:	48 8d 3d c6 04 00 00 	lea    0x4c6(%rip),%rdi        # d78 <_IO_stdin_used+0x1c8>
 8b2:	b8 00 00 00 00       	mov    $0x0,%eax
 8b7:	e8 14 fd ff ff       	callq  5d0 <printf@plt>
 8bc:	8b 45 f4             	mov    -0xc(%rbp),%eax
 8bf:	8b 55 f8             	mov    -0x8(%rbp),%edx
 8c2:	89 c0                	mov    %eax,%eax
 8c4:	01 d0                	add    %edx,%eax
 8c6:	89 45 fc             	mov    %eax,-0x4(%rbp)
 8c9:	8b 4d fc             	mov    -0x4(%rbp),%ecx
 8cc:	8b 55 f8             	mov    -0x8(%rbp),%edx
 8cf:	8b 45 f4             	mov    -0xc(%rbp),%eax
 8d2:	89 c6                	mov    %eax,%esi
 8d4:	48 8d 3d d5 04 00 00 	lea    0x4d5(%rip),%rdi        # db0 <_IO_stdin_used+0x200>
 8db:	b8 00 00 00 00       	mov    $0x0,%eax
 8e0:	e8 eb fc ff ff       	callq  5d0 <printf@plt>
 8e5:	b8 00 00 00 00       	mov    $0x0,%eax
 8ea:	e8 0b fe ff ff       	callq  6fa <print_empty_lines>
 8ef:	90                   	nop
 8f0:	c9                   	leaveq 
 8f1:	c3                   	retq   

00000000000008f2 <asm_for_loop_test4>:
 8f2:	55                   	push   %rbp
 8f3:	48 89 e5             	mov    %rsp,%rbp
 8f6:	89 7d fc             	mov    %edi,-0x4(%rbp)
 8f9:	48 89 75 f0          	mov    %rsi,-0x10(%rbp)
 8fd:	48 8b 45 f0          	mov    -0x10(%rbp),%rax
 901:	48 8b 55 f0          	mov    -0x10(%rbp),%rdx
 905:	8b 4d fc             	mov    -0x4(%rbp),%ecx
 908:	01 08                	add    %ecx,(%rax)
 90a:	90                   	nop
 90b:	5d                   	pop    %rbp
 90c:	c3                   	retq   

000000000000090d <asm_test4>:
 90d:	55                   	push   %rbp
 90e:	48 89 e5             	mov    %rsp,%rbp
 911:	48 83 ec 30          	sub    $0x30,%rsp
 915:	64 48 8b 04 25 28 00 	mov    %fs:0x28,%rax
 91c:	00 00 
 91e:	48 89 45 f8          	mov    %rax,-0x8(%rbp)
 922:	31 c0                	xor    %eax,%eax
 924:	c7 45 e0 00 00 00 00 	movl   $0x0,-0x20(%rbp)
 92b:	c7 45 e4 0b 00 00 00 	movl   $0xb,-0x1c(%rbp)
 932:	c7 45 e8 16 00 00 00 	movl   $0x16,-0x18(%rbp)
 939:	c7 45 ec 21 00 00 00 	movl   $0x21,-0x14(%rbp)
 940:	c7 45 f0 2c 00 00 00 	movl   $0x2c,-0x10(%rbp)
 947:	c7 45 f4 37 00 00 00 	movl   $0x37,-0xc(%rbp)
 94e:	48 8d 3d 93 04 00 00 	lea    0x493(%rip),%rdi        # de8 <_IO_stdin_used+0x238>
 955:	e8 56 fc ff ff       	callq  5b0 <puts@plt>
 95a:	48 8d 3d af 04 00 00 	lea    0x4af(%rip),%rdi        # e10 <_IO_stdin_used+0x260>
 961:	e8 4a fc ff ff       	callq  5b0 <puts@plt>
 966:	48 8d 3d d5 04 00 00 	lea    0x4d5(%rip),%rdi        # e42 <_IO_stdin_used+0x292>
 96d:	e8 3e fc ff ff       	callq  5b0 <puts@plt>
 972:	c7 45 d4 00 00 00 00 	movl   $0x0,-0x2c(%rbp)
 979:	eb 23                	jmp    99e <asm_test4+0x91>
 97b:	8b 45 d4             	mov    -0x2c(%rbp),%eax
 97e:	48 98                	cltq   
 980:	8b 54 85 e0          	mov    -0x20(%rbp,%rax,4),%edx
 984:	8b 45 d4             	mov    -0x2c(%rbp),%eax
 987:	89 c6                	mov    %eax,%esi
 989:	48 8d 3d c1 04 00 00 	lea    0x4c1(%rip),%rdi        # e51 <_IO_stdin_used+0x2a1>
 990:	b8 00 00 00 00       	mov    $0x0,%eax
 995:	e8 36 fc ff ff       	callq  5d0 <printf@plt>
 99a:	83 45 d4 01          	addl   $0x1,-0x2c(%rbp)
 99e:	83 7d d4 05          	cmpl   $0x5,-0x2c(%rbp)
 9a2:	7e d7                	jle    97b <asm_test4+0x6e>
 9a4:	c7 45 d8 00 00 00 00 	movl   $0x0,-0x28(%rbp)
 9ab:	eb 15                	jmp    9c2 <asm_test4+0xb5>
 9ad:	48 8d 55 e0          	lea    -0x20(%rbp),%rdx
 9b1:	8b 45 d8             	mov    -0x28(%rbp),%eax
 9b4:	48 89 d6             	mov    %rdx,%rsi
 9b7:	89 c7                	mov    %eax,%edi
 9b9:	e8 34 ff ff ff       	callq  8f2 <asm_for_loop_test4>
 9be:	83 45 d8 01          	addl   $0x1,-0x28(%rbp)
 9c2:	83 7d d8 05          	cmpl   $0x5,-0x28(%rbp)
 9c6:	7e e5                	jle    9ad <asm_test4+0xa0>
 9c8:	48 8d 3d 91 04 00 00 	lea    0x491(%rip),%rdi        # e60 <_IO_stdin_used+0x2b0>
 9cf:	e8 dc fb ff ff       	callq  5b0 <puts@plt>
 9d4:	c7 45 dc 00 00 00 00 	movl   $0x0,-0x24(%rbp)
 9db:	eb 23                	jmp    a00 <asm_test4+0xf3>
 9dd:	8b 45 dc             	mov    -0x24(%rbp),%eax
 9e0:	48 98                	cltq   
 9e2:	8b 54 85 e0          	mov    -0x20(%rbp,%rax,4),%edx
 9e6:	8b 45 dc             	mov    -0x24(%rbp),%eax
 9e9:	89 c6                	mov    %eax,%esi
 9eb:	48 8d 3d 5f 04 00 00 	lea    0x45f(%rip),%rdi        # e51 <_IO_stdin_used+0x2a1>
 9f2:	b8 00 00 00 00       	mov    $0x0,%eax
 9f7:	e8 d4 fb ff ff       	callq  5d0 <printf@plt>
 9fc:	83 45 dc 01          	addl   $0x1,-0x24(%rbp)
 a00:	83 7d dc 05          	cmpl   $0x5,-0x24(%rbp)
 a04:	7e d7                	jle    9dd <asm_test4+0xd0>
 a06:	b8 00 00 00 00       	mov    $0x0,%eax
 a0b:	e8 ea fc ff ff       	callq  6fa <print_empty_lines>
 a10:	90                   	nop
 a11:	48 8b 45 f8          	mov    -0x8(%rbp),%rax
 a15:	64 48 33 04 25 28 00 	xor    %fs:0x28,%rax
 a1c:	00 00 
 a1e:	74 05                	je     a25 <asm_test4+0x118>
 a20:	e8 9b fb ff ff       	callq  5c0 <__stack_chk_fail@plt>
 a25:	c9                   	leaveq 
 a26:	c3                   	retq   

0000000000000a27 <asm_test5>:
 a27:	55                   	push   %rbp
 a28:	48 89 e5             	mov    %rsp,%rbp
 a2b:	53                   	push   %rbx
 a2c:	48 83 ec 48          	sub    $0x48,%rsp
 a30:	64 48 8b 04 25 28 00 	mov    %fs:0x28,%rax
 a37:	00 00 
 a39:	48 89 45 e8          	mov    %rax,-0x18(%rbp)
 a3d:	31 c0                	xor    %eax,%eax
 a3f:	c7 45 c0 02 00 00 00 	movl   $0x2,-0x40(%rbp)
 a46:	c7 45 c4 08 00 00 00 	movl   $0x8,-0x3c(%rbp)
 a4d:	c7 45 c8 14 00 00 00 	movl   $0x14,-0x38(%rbp)
 a54:	c7 45 cc 28 00 00 00 	movl   $0x28,-0x34(%rbp)
 a5b:	c7 45 d0 3c 00 00 00 	movl   $0x3c,-0x30(%rbp)
 a62:	c7 45 d4 46 00 00 00 	movl   $0x46,-0x2c(%rbp)
 a69:	c7 45 d8 50 00 00 00 	movl   $0x50,-0x28(%rbp)
 a70:	c7 45 dc 78 00 00 00 	movl   $0x78,-0x24(%rbp)
 a77:	c7 45 b0 00 00 00 00 	movl   $0x0,-0x50(%rbp)
 a7e:	48 8d 45 c0          	lea    -0x40(%rbp),%rax
 a82:	48 89 45 b8          	mov    %rax,-0x48(%rbp)
 a86:	c7 45 b4 00 00 00 00 	movl   $0x0,-0x4c(%rbp)
 a8d:	eb 16                	jmp    aa5 <asm_test5+0x7e>
 a8f:	48 8b 45 b8          	mov    -0x48(%rbp),%rax
 a93:	8b 00                	mov    (%rax),%eax
 a95:	01 c3                	add    %eax,%ebx
 a97:	89 d8                	mov    %ebx,%eax
 a99:	89 45 b0             	mov    %eax,-0x50(%rbp)
 a9c:	48 83 45 b8 04       	addq   $0x4,-0x48(%rbp)
 aa1:	83 45 b4 01          	addl   $0x1,-0x4c(%rbp)
 aa5:	83 7d b4 07          	cmpl   $0x7,-0x4c(%rbp)
 aa9:	7e e4                	jle    a8f <asm_test5+0x68>
 aab:	8b 45 b0             	mov    -0x50(%rbp),%eax
 aae:	89 c6                	mov    %eax,%esi
 ab0:	48 8d 3d d2 03 00 00 	lea    0x3d2(%rip),%rdi        # e89 <_IO_stdin_used+0x2d9>
 ab7:	b8 00 00 00 00       	mov    $0x0,%eax
 abc:	e8 0f fb ff ff       	callq  5d0 <printf@plt>
 ac1:	b8 00 00 00 00       	mov    $0x0,%eax
 ac6:	e8 2f fc ff ff       	callq  6fa <print_empty_lines>
 acb:	90                   	nop
 acc:	48 8b 45 e8          	mov    -0x18(%rbp),%rax
 ad0:	64 48 33 04 25 28 00 	xor    %fs:0x28,%rax
 ad7:	00 00 
 ad9:	74 05                	je     ae0 <asm_test5+0xb9>
 adb:	e8 e0 fa ff ff       	callq  5c0 <__stack_chk_fail@plt>
 ae0:	48 83 c4 48          	add    $0x48,%rsp
 ae4:	5b                   	pop    %rbx
 ae5:	5d                   	pop    %rbp
 ae6:	c3                   	retq   

0000000000000ae7 <main>:
 ae7:	55                   	push   %rbp
 ae8:	48 89 e5             	mov    %rsp,%rbp
 aeb:	48 8d 3d a2 03 00 00 	lea    0x3a2(%rip),%rdi        # e94 <_IO_stdin_used+0x2e4>
 af2:	e8 b9 fa ff ff       	callq  5b0 <puts@plt>
 af7:	b8 00 00 00 00       	mov    $0x0,%eax
 afc:	e8 0c fc ff ff       	callq  70d <asm_test1>
 b01:	b8 00 00 00 00       	mov    $0x0,%eax
 b06:	e8 70 fc ff ff       	callq  77b <asm_test2>
 b0b:	b8 00 00 00 00       	mov    $0x0,%eax
 b10:	e8 62 fd ff ff       	callq  877 <asm_test3>
 b15:	b8 00 00 00 00       	mov    $0x0,%eax
 b1a:	e8 ee fd ff ff       	callq  90d <asm_test4>
 b1f:	b8 00 00 00 00       	mov    $0x0,%eax
 b24:	e8 fe fe ff ff       	callq  a27 <asm_test5>
 b29:	b8 00 00 00 00       	mov    $0x0,%eax
 b2e:	5d                   	pop    %rbp
 b2f:	c3                   	retq   

0000000000000b30 <__libc_csu_init>:
 b30:	41 57                	push   %r15
 b32:	41 56                	push   %r14
 b34:	49 89 d7             	mov    %rdx,%r15
 b37:	41 55                	push   %r13
 b39:	41 54                	push   %r12
 b3b:	4c 8d 25 66 12 20 00 	lea    0x201266(%rip),%r12        # 201da8 <__frame_dummy_init_array_entry>
 b42:	55                   	push   %rbp
 b43:	48 8d 2d 66 12 20 00 	lea    0x201266(%rip),%rbp        # 201db0 <__init_array_end>
 b4a:	53                   	push   %rbx
 b4b:	41 89 fd             	mov    %edi,%r13d
 b4e:	49 89 f6             	mov    %rsi,%r14
 b51:	4c 29 e5             	sub    %r12,%rbp
 b54:	48 83 ec 08          	sub    $0x8,%rsp
 b58:	48 c1 fd 03          	sar    $0x3,%rbp
 b5c:	e8 1f fa ff ff       	callq  580 <_init>
 b61:	48 85 ed             	test   %rbp,%rbp
 b64:	74 20                	je     b86 <__libc_csu_init+0x56>
 b66:	31 db                	xor    %ebx,%ebx
 b68:	0f 1f 84 00 00 00 00 	nopl   0x0(%rax,%rax,1)
 b6f:	00 
 b70:	4c 89 fa             	mov    %r15,%rdx
 b73:	4c 89 f6             	mov    %r14,%rsi
 b76:	44 89 ef             	mov    %r13d,%edi
 b79:	41 ff 14 dc          	callq  *(%r12,%rbx,8)
 b7d:	48 83 c3 01          	add    $0x1,%rbx
 b81:	48 39 dd             	cmp    %rbx,%rbp
 b84:	75 ea                	jne    b70 <__libc_csu_init+0x40>
 b86:	48 83 c4 08          	add    $0x8,%rsp
 b8a:	5b                   	pop    %rbx
 b8b:	5d                   	pop    %rbp
 b8c:	41 5c                	pop    %r12
 b8e:	41 5d                	pop    %r13
 b90:	41 5e                	pop    %r14
 b92:	41 5f                	pop    %r15
 b94:	c3                   	retq   
 b95:	90                   	nop
 b96:	66 2e 0f 1f 84 00 00 	nopw   %cs:0x0(%rax,%rax,1)
 b9d:	00 00 00 

0000000000000ba0 <__libc_csu_fini>:
 ba0:	f3 c3                	repz retq 

Disassembly of section .fini:

0000000000000ba4 <_fini>:
 ba4:	48 83 ec 08          	sub    $0x8,%rsp
 ba8:	48 83 c4 08          	add    $0x8,%rsp
 bac:	c3                   	retq   
